
tx500_decoder.elf:     file format elf32-littlearm

Sections:
Idx Name          Size      VMA       LMA       File off  Algn
  0 .isr_vector   000000b8  08000000  08000000  00010000  2**0
                  CONTENTS, ALLOC, LOAD, READONLY, DATA
  1 .text         00002a2c  080000b8  080000b8  000100b8  2**2
                  CONTENTS, ALLOC, LOAD, READONLY, CODE
  2 .rodata       00000094  08002ae4  08002ae4  00012ae4  2**2
                  CONTENTS, ALLOC, LOAD, READONLY, DATA
  3 .ARM.extab    00000000  08002b78  08002b78  0002000c  2**0
                  CONTENTS
  4 .ARM          00000000  08002b78  08002b78  0002000c  2**0
                  CONTENTS
  5 .preinit_array 00000000  08002b78  08002b78  0002000c  2**0
                  CONTENTS, ALLOC, LOAD, DATA
  6 .init_array   00000004  08002b78  08002b78  00012b78  2**2
                  CONTENTS, ALLOC, LOAD, DATA
  7 .fini_array   00000004  08002b7c  08002b7c  00012b7c  2**2
                  CONTENTS, ALLOC, LOAD, DATA
  8 .data         0000000c  20000000  08002b80  00020000  2**2
                  CONTENTS, ALLOC, LOAD, DATA
  9 .bss          00000080  2000000c  08002b8c  0002000c  2**2
                  ALLOC
 10 ._user_heap_stack 00000604  2000008c  08002b8c  0002008c  2**0
                  ALLOC
 11 .ARM.attributes 00000028  00000000  00000000  0002000c  2**0
                  CONTENTS, READONLY
 12 .comment      00000043  00000000  00000000  00020034  2**0
                  CONTENTS, READONLY
 13 .debug_info   000078a0  00000000  00000000  00020077  2**0
                  CONTENTS, READONLY, DEBUGGING, OCTETS
 14 .debug_abbrev 00001e1e  00000000  00000000  00027917  2**0
                  CONTENTS, READONLY, DEBUGGING, OCTETS
 15 .debug_aranges 000009d0  00000000  00000000  00029738  2**3
                  CONTENTS, READONLY, DEBUGGING, OCTETS
 16 .debug_rnglists 00000743  00000000  00000000  0002a108  2**0
                  CONTENTS, READONLY, DEBUGGING, OCTETS
 17 .debug_macro  00016151  00000000  00000000  0002a84b  2**0
                  CONTENTS, READONLY, DEBUGGING, OCTETS
 18 .debug_line   00009d42  00000000  00000000  0004099c  2**0
                  CONTENTS, READONLY, DEBUGGING, OCTETS
 19 .debug_str    00083317  00000000  00000000  0004a6de  2**0
                  CONTENTS, READONLY, DEBUGGING, OCTETS
 20 .debug_frame  00002170  00000000  00000000  000cd9f8  2**2
                  CONTENTS, READONLY, DEBUGGING, OCTETS
 21 .debug_line_str 0000006b  00000000  00000000  000cfb68  2**0
                  CONTENTS, READONLY, DEBUGGING, OCTETS

Disassembly of section .text:

080000b8 <__do_global_dtors_aux>:
 80000b8:	b510      	push	{r4, lr}
 80000ba:	4c06      	ldr	r4, [pc, #24]	; (80000d4 <__do_global_dtors_aux+0x1c>)
 80000bc:	7823      	ldrb	r3, [r4, #0]
 80000be:	2b00      	cmp	r3, #0
 80000c0:	d107      	bne.n	80000d2 <__do_global_dtors_aux+0x1a>
 80000c2:	4b05      	ldr	r3, [pc, #20]	; (80000d8 <__do_global_dtors_aux+0x20>)
 80000c4:	2b00      	cmp	r3, #0
 80000c6:	d002      	beq.n	80000ce <__do_global_dtors_aux+0x16>
 80000c8:	4804      	ldr	r0, [pc, #16]	; (80000dc <__do_global_dtors_aux+0x24>)
 80000ca:	e000      	b.n	80000ce <__do_global_dtors_aux+0x16>
 80000cc:	bf00      	nop
 80000ce:	2301      	movs	r3, #1
 80000d0:	7023      	strb	r3, [r4, #0]
 80000d2:	bd10      	pop	{r4, pc}
 80000d4:	2000000c 	.word	0x2000000c
 80000d8:	00000000 	.word	0x00000000
 80000dc:	08002acc 	.word	0x08002acc

080000e0 <frame_dummy>:
 80000e0:	4b04      	ldr	r3, [pc, #16]	; (80000f4 <frame_dummy+0x14>)
 80000e2:	b510      	push	{r4, lr}
 80000e4:	2b00      	cmp	r3, #0
 80000e6:	d003      	beq.n	80000f0 <frame_dummy+0x10>
 80000e8:	4903      	ldr	r1, [pc, #12]	; (80000f8 <frame_dummy+0x18>)
 80000ea:	4804      	ldr	r0, [pc, #16]	; (80000fc <frame_dummy+0x1c>)
 80000ec:	e000      	b.n	80000f0 <frame_dummy+0x10>
 80000ee:	bf00      	nop
 80000f0:	bd10      	pop	{r4, pc}
 80000f2:	46c0      	nop			; (mov r8, r8)
 80000f4:	00000000 	.word	0x00000000
 80000f8:	20000010 	.word	0x20000010
 80000fc:	08002acc 	.word	0x08002acc

08000100 <__udivsi3>:
 8000100:	2200      	movs	r2, #0
 8000102:	0843      	lsrs	r3, r0, #1
 8000104:	428b      	cmp	r3, r1
 8000106:	d374      	bcc.n	80001f2 <__udivsi3+0xf2>
 8000108:	0903      	lsrs	r3, r0, #4
 800010a:	428b      	cmp	r3, r1
 800010c:	d35f      	bcc.n	80001ce <__udivsi3+0xce>
 800010e:	0a03      	lsrs	r3, r0, #8
 8000110:	428b      	cmp	r3, r1
 8000112:	d344      	bcc.n	800019e <__udivsi3+0x9e>
 8000114:	0b03      	lsrs	r3, r0, #12
 8000116:	428b      	cmp	r3, r1
 8000118:	d328      	bcc.n	800016c <__udivsi3+0x6c>
 800011a:	0c03      	lsrs	r3, r0, #16
 800011c:	428b      	cmp	r3, r1
 800011e:	d30d      	bcc.n	800013c <__udivsi3+0x3c>
 8000120:	22ff      	movs	r2, #255	; 0xff
 8000122:	0209      	lsls	r1, r1, #8
 8000124:	ba12      	rev	r2, r2
 8000126:	0c03      	lsrs	r3, r0, #16
 8000128:	428b      	cmp	r3, r1
 800012a:	d302      	bcc.n	8000132 <__udivsi3+0x32>
 800012c:	1212      	asrs	r2, r2, #8
 800012e:	0209      	lsls	r1, r1, #8
 8000130:	d065      	beq.n	80001fe <__udivsi3+0xfe>
 8000132:	0b03      	lsrs	r3, r0, #12
 8000134:	428b      	cmp	r3, r1
 8000136:	d319      	bcc.n	800016c <__udivsi3+0x6c>
 8000138:	e000      	b.n	800013c <__udivsi3+0x3c>
 800013a:	0a09      	lsrs	r1, r1, #8
 800013c:	0bc3      	lsrs	r3, r0, #15
 800013e:	428b      	cmp	r3, r1
 8000140:	d301      	bcc.n	8000146 <__udivsi3+0x46>
 8000142:	03cb      	lsls	r3, r1, #15
 8000144:	1ac0      	subs	r0, r0, r3
 8000146:	4152      	adcs	r2, r2
 8000148:	0b83      	lsrs	r3, r0, #14
 800014a:	428b      	cmp	r3, r1
 800014c:	d301      	bcc.n	8000152 <__udivsi3+0x52>
 800014e:	038b      	lsls	r3, r1, #14
 8000150:	1ac0      	subs	r0, r0, r3
 8000152:	4152      	adcs	r2, r2
 8000154:	0b43      	lsrs	r3, r0, #13
 8000156:	428b      	cmp	r3, r1
 8000158:	d301      	bcc.n	800015e <__udivsi3+0x5e>
 800015a:	034b      	lsls	r3, r1, #13
 800015c:	1ac0      	subs	r0, r0, r3
 800015e:	4152      	adcs	r2, r2
 8000160:	0b03      	lsrs	r3, r0, #12
 8000162:	428b      	cmp	r3, r1
 8000164:	d301      	bcc.n	800016a <__udivsi3+0x6a>
 8000166:	030b      	lsls	r3, r1, #12
 8000168:	1ac0      	subs	r0, r0, r3
 800016a:	4152      	adcs	r2, r2
 800016c:	0ac3      	lsrs	r3, r0, #11
 800016e:	428b      	cmp	r3, r1
 8000170:	d301      	bcc.n	8000176 <__udivsi3+0x76>
 8000172:	02cb      	lsls	r3, r1, #11
 8000174:	1ac0      	subs	r0, r0, r3
 8000176:	4152      	adcs	r2, r2
 8000178:	0a83      	lsrs	r3, r0, #10
 800017a:	428b      	cmp	r3, r1
 800017c:	d301      	bcc.n	8000182 <__udivsi3+0x82>
 800017e:	028b      	lsls	r3, r1, #10
 8000180:	1ac0      	subs	r0, r0, r3
 8000182:	4152      	adcs	r2, r2
 8000184:	0a43      	lsrs	r3, r0, #9
 8000186:	428b      	cmp	r3, r1
 8000188:	d301      	bcc.n	800018e <__udivsi3+0x8e>
 800018a:	024b      	lsls	r3, r1, #9
 800018c:	1ac0      	subs	r0, r0, r3
 800018e:	4152      	adcs	r2, r2
 8000190:	0a03      	lsrs	r3, r0, #8
 8000192:	428b      	cmp	r3, r1
 8000194:	d301      	bcc.n	800019a <__udivsi3+0x9a>
 8000196:	020b      	lsls	r3, r1, #8
 8000198:	1ac0      	subs	r0, r0, r3
 800019a:	4152      	adcs	r2, r2
 800019c:	d2cd      	bcs.n	800013a <__udivsi3+0x3a>
 800019e:	09c3      	lsrs	r3, r0, #7
 80001a0:	428b      	cmp	r3, r1
 80001a2:	d301      	bcc.n	80001a8 <__udivsi3+0xa8>
 80001a4:	01cb      	lsls	r3, r1, #7
 80001a6:	1ac0      	subs	r0, r0, r3
 80001a8:	4152      	adcs	r2, r2
 80001aa:	0983      	lsrs	r3, r0, #6
 80001ac:	428b      	cmp	r3, r1
 80001ae:	d301      	bcc.n	80001b4 <__udivsi3+0xb4>
 80001b0:	018b      	lsls	r3, r1, #6
 80001b2:	1ac0      	subs	r0, r0, r3
 80001b4:	4152      	adcs	r2, r2
 80001b6:	0943      	lsrs	r3, r0, #5
 80001b8:	428b      	cmp	r3, r1
 80001ba:	d301      	bcc.n	80001c0 <__udivsi3+0xc0>
 80001bc:	014b      	lsls	r3, r1, #5
 80001be:	1ac0      	subs	r0, r0, r3
 80001c0:	4152      	adcs	r2, r2
 80001c2:	0903      	lsrs	r3, r0, #4
 80001c4:	428b      	cmp	r3, r1
 80001c6:	d301      	bcc.n	80001cc <__udivsi3+0xcc>
 80001c8:	010b      	lsls	r3, r1, #4
 80001ca:	1ac0      	subs	r0, r0, r3
 80001cc:	4152      	adcs	r2, r2
 80001ce:	08c3      	lsrs	r3, r0, #3
 80001d0:	428b      	cmp	r3, r1
 80001d2:	d301      	bcc.n	80001d8 <__udivsi3+0xd8>
 80001d4:	00cb      	lsls	r3, r1, #3
 80001d6:	1ac0      	subs	r0, r0, r3
 80001d8:	4152      	adcs	r2, r2
 80001da:	0883      	lsrs	r3, r0, #2
 80001dc:	428b      	cmp	r3, r1
 80001de:	d301      	bcc.n	80001e4 <__udivsi3+0xe4>
 80001e0:	008b      	lsls	r3, r1, #2
 80001e2:	1ac0      	subs	r0, r0, r3
 80001e4:	4152      	adcs	r2, r2
 80001e6:	0843      	lsrs	r3, r0, #1
 80001e8:	428b      	cmp	r3, r1
 80001ea:	d301      	bcc.n	80001f0 <__udivsi3+0xf0>
 80001ec:	004b      	lsls	r3, r1, #1
 80001ee:	1ac0      	subs	r0, r0, r3
 80001f0:	4152      	adcs	r2, r2
 80001f2:	1a41      	subs	r1, r0, r1
 80001f4:	d200      	bcs.n	80001f8 <__udivsi3+0xf8>
 80001f6:	4601      	mov	r1, r0
 80001f8:	4152      	adcs	r2, r2
 80001fa:	4610      	mov	r0, r2
 80001fc:	4770      	bx	lr
 80001fe:	e7ff      	b.n	8000200 <__udivsi3+0x100>
 8000200:	b501      	push	{r0, lr}
 8000202:	2000      	movs	r0, #0
 8000204:	f000 f806 	bl	8000214 <__aeabi_idiv0>
 8000208:	bd02      	pop	{r1, pc}
 800020a:	46c0      	nop			; (mov r8, r8)

0800020c <__aeabi_uidivmod>:
 800020c:	2900      	cmp	r1, #0
 800020e:	d0f7      	beq.n	8000200 <__udivsi3+0x100>
 8000210:	e776      	b.n	8000100 <__udivsi3>
 8000212:	4770      	bx	lr

08000214 <__aeabi_idiv0>:
 8000214:	4770      	bx	lr
 8000216:	46c0      	nop			; (mov r8, r8)

08000218 <__NVIC_EnableIRQ>:
  \details Enables a device specific interrupt in the NVIC interrupt controller.
  \param [in]      IRQn  Device specific interrupt number.
  \note    IRQn must not be negative.
 */
__STATIC_INLINE void __NVIC_EnableIRQ(IRQn_Type IRQn)
{
 8000218:	b580      	push	{r7, lr}
 800021a:	b082      	sub	sp, #8
 800021c:	af00      	add	r7, sp, #0
 800021e:	0002      	movs	r2, r0
 8000220:	1dfb      	adds	r3, r7, #7
 8000222:	701a      	strb	r2, [r3, #0]
  if ((int32_t)(IRQn) >= 0)
 8000224:	1dfb      	adds	r3, r7, #7
 8000226:	781b      	ldrb	r3, [r3, #0]
 8000228:	2b7f      	cmp	r3, #127	; 0x7f
 800022a:	d809      	bhi.n	8000240 <__NVIC_EnableIRQ+0x28>
  {
    __COMPILER_BARRIER();
    NVIC->ISER[0U] = (uint32_t)(1UL << (((uint32_t)IRQn) & 0x1FUL));
 800022c:	1dfb      	adds	r3, r7, #7
 800022e:	781b      	ldrb	r3, [r3, #0]
 8000230:	001a      	movs	r2, r3
 8000232:	231f      	movs	r3, #31
 8000234:	401a      	ands	r2, r3
 8000236:	4b04      	ldr	r3, [pc, #16]	; (8000248 <__NVIC_EnableIRQ+0x30>)
 8000238:	2101      	movs	r1, #1
 800023a:	4091      	lsls	r1, r2
 800023c:	000a      	movs	r2, r1
 800023e:	601a      	str	r2, [r3, #0]
    __COMPILER_BARRIER();
  }
}
 8000240:	46c0      	nop			; (mov r8, r8)
 8000242:	46bd      	mov	sp, r7
 8000244:	b002      	add	sp, #8
 8000246:	bd80      	pop	{r7, pc}
 8000248:	e000e100 	.word	0xe000e100

0800024c <__NVIC_SetPriority>:
  \param [in]      IRQn  Interrupt number.
  \param [in]  priority  Priority to set.
  \note    The priority cannot be set for every processor exception.
 */
__STATIC_INLINE void __NVIC_SetPriority(IRQn_Type IRQn, uint32_t priority)
{
 800024c:	b590      	push	{r4, r7, lr}
 800024e:	b083      	sub	sp, #12
 8000250:	af00      	add	r7, sp, #0
 8000252:	0002      	movs	r2, r0
 8000254:	6039      	str	r1, [r7, #0]
 8000256:	1dfb      	adds	r3, r7, #7
 8000258:	701a      	strb	r2, [r3, #0]
  if ((int32_t)(IRQn) >= 0)
 800025a:	1dfb      	adds	r3, r7, #7
 800025c:	781b      	ldrb	r3, [r3, #0]
 800025e:	2b7f      	cmp	r3, #127	; 0x7f
 8000260:	d828      	bhi.n	80002b4 <__NVIC_SetPriority+0x68>
  {
    NVIC->IP[_IP_IDX(IRQn)]  = ((uint32_t)(NVIC->IP[_IP_IDX(IRQn)]  & ~(0xFFUL << _BIT_SHIFT(IRQn))) |
 8000262:	4a2f      	ldr	r2, [pc, #188]	; (8000320 <__NVIC_SetPriority+0xd4>)
 8000264:	1dfb      	adds	r3, r7, #7
 8000266:	781b      	ldrb	r3, [r3, #0]
 8000268:	b25b      	sxtb	r3, r3
 800026a:	089b      	lsrs	r3, r3, #2
 800026c:	33c0      	adds	r3, #192	; 0xc0
 800026e:	009b      	lsls	r3, r3, #2
 8000270:	589b      	ldr	r3, [r3, r2]
 8000272:	1dfa      	adds	r2, r7, #7
 8000274:	7812      	ldrb	r2, [r2, #0]
 8000276:	0011      	movs	r1, r2
 8000278:	2203      	movs	r2, #3
 800027a:	400a      	ands	r2, r1
 800027c:	00d2      	lsls	r2, r2, #3
 800027e:	21ff      	movs	r1, #255	; 0xff
 8000280:	4091      	lsls	r1, r2
 8000282:	000a      	movs	r2, r1
 8000284:	43d2      	mvns	r2, r2
 8000286:	401a      	ands	r2, r3
 8000288:	0011      	movs	r1, r2
       (((priority << (8U - __NVIC_PRIO_BITS)) & (uint32_t)0xFFUL) << _BIT_SHIFT(IRQn)));
 800028a:	683b      	ldr	r3, [r7, #0]
 800028c:	019b      	lsls	r3, r3, #6
 800028e:	22ff      	movs	r2, #255	; 0xff
 8000290:	401a      	ands	r2, r3
 8000292:	1dfb      	adds	r3, r7, #7
 8000294:	781b      	ldrb	r3, [r3, #0]
 8000296:	0018      	movs	r0, r3
 8000298:	2303      	movs	r3, #3
 800029a:	4003      	ands	r3, r0
 800029c:	00db      	lsls	r3, r3, #3
 800029e:	409a      	lsls	r2, r3
    NVIC->IP[_IP_IDX(IRQn)]  = ((uint32_t)(NVIC->IP[_IP_IDX(IRQn)]  & ~(0xFFUL << _BIT_SHIFT(IRQn))) |
 80002a0:	481f      	ldr	r0, [pc, #124]	; (8000320 <__NVIC_SetPriority+0xd4>)
 80002a2:	1dfb      	adds	r3, r7, #7
 80002a4:	781b      	ldrb	r3, [r3, #0]
 80002a6:	b25b      	sxtb	r3, r3
 80002a8:	089b      	lsrs	r3, r3, #2
 80002aa:	430a      	orrs	r2, r1
 80002ac:	33c0      	adds	r3, #192	; 0xc0
 80002ae:	009b      	lsls	r3, r3, #2
 80002b0:	501a      	str	r2, [r3, r0]
  else
  {
    SCB->SHP[_SHP_IDX(IRQn)] = ((uint32_t)(SCB->SHP[_SHP_IDX(IRQn)] & ~(0xFFUL << _BIT_SHIFT(IRQn))) |
       (((priority << (8U - __NVIC_PRIO_BITS)) & (uint32_t)0xFFUL) << _BIT_SHIFT(IRQn)));
  }
}
 80002b2:	e031      	b.n	8000318 <__NVIC_SetPriority+0xcc>
    SCB->SHP[_SHP_IDX(IRQn)] = ((uint32_t)(SCB->SHP[_SHP_IDX(IRQn)] & ~(0xFFUL << _BIT_SHIFT(IRQn))) |
 80002b4:	4a1b      	ldr	r2, [pc, #108]	; (8000324 <__NVIC_SetPriority+0xd8>)
 80002b6:	1dfb      	adds	r3, r7, #7
 80002b8:	781b      	ldrb	r3, [r3, #0]
 80002ba:	0019      	movs	r1, r3
 80002bc:	230f      	movs	r3, #15
 80002be:	400b      	ands	r3, r1
 80002c0:	3b08      	subs	r3, #8
 80002c2:	089b      	lsrs	r3, r3, #2
 80002c4:	3306      	adds	r3, #6
 80002c6:	009b      	lsls	r3, r3, #2
 80002c8:	18d3      	adds	r3, r2, r3
 80002ca:	3304      	adds	r3, #4
 80002cc:	681b      	ldr	r3, [r3, #0]
 80002ce:	1dfa      	adds	r2, r7, #7
 80002d0:	7812      	ldrb	r2, [r2, #0]
 80002d2:	0011      	movs	r1, r2
 80002d4:	2203      	movs	r2, #3
 80002d6:	400a      	ands	r2, r1
 80002d8:	00d2      	lsls	r2, r2, #3
 80002da:	21ff      	movs	r1, #255	; 0xff
 80002dc:	4091      	lsls	r1, r2
 80002de:	000a      	movs	r2, r1
 80002e0:	43d2      	mvns	r2, r2
 80002e2:	401a      	ands	r2, r3
 80002e4:	0011      	movs	r1, r2
       (((priority << (8U - __NVIC_PRIO_BITS)) & (uint32_t)0xFFUL) << _BIT_SHIFT(IRQn)));
 80002e6:	683b      	ldr	r3, [r7, #0]
 80002e8:	019b      	lsls	r3, r3, #6
 80002ea:	22ff      	movs	r2, #255	; 0xff
 80002ec:	401a      	ands	r2, r3
 80002ee:	1dfb      	adds	r3, r7, #7
 80002f0:	781b      	ldrb	r3, [r3, #0]
 80002f2:	0018      	movs	r0, r3
 80002f4:	2303      	movs	r3, #3
 80002f6:	4003      	ands	r3, r0
 80002f8:	00db      	lsls	r3, r3, #3
 80002fa:	409a      	lsls	r2, r3
    SCB->SHP[_SHP_IDX(IRQn)] = ((uint32_t)(SCB->SHP[_SHP_IDX(IRQn)] & ~(0xFFUL << _BIT_SHIFT(IRQn))) |
 80002fc:	4809      	ldr	r0, [pc, #36]	; (8000324 <__NVIC_SetPriority+0xd8>)
 80002fe:	1dfb      	adds	r3, r7, #7
 8000300:	781b      	ldrb	r3, [r3, #0]
 8000302:	001c      	movs	r4, r3
 8000304:	230f      	movs	r3, #15
 8000306:	4023      	ands	r3, r4
 8000308:	3b08      	subs	r3, #8
 800030a:	089b      	lsrs	r3, r3, #2
 800030c:	430a      	orrs	r2, r1
 800030e:	3306      	adds	r3, #6
 8000310:	009b      	lsls	r3, r3, #2
 8000312:	18c3      	adds	r3, r0, r3
 8000314:	3304      	adds	r3, #4
 8000316:	601a      	str	r2, [r3, #0]
}
 8000318:	46c0      	nop			; (mov r8, r8)
 800031a:	46bd      	mov	sp, r7
 800031c:	b003      	add	sp, #12
 800031e:	bd90      	pop	{r4, r7, pc}
 8000320:	e000e100 	.word	0xe000e100
 8000324:	e000ed00 	.word	0xe000ed00

08000328 <LL_TIM_EnableCounter>:
  * @rmtoll CR1          CEN           LL_TIM_EnableCounter
  * @param  TIMx Timer instance
  * @retval None
  */
__STATIC_INLINE void LL_TIM_EnableCounter(TIM_TypeDef *TIMx)
{
 8000328:	b580      	push	{r7, lr}
 800032a:	b082      	sub	sp, #8
 800032c:	af00      	add	r7, sp, #0
 800032e:	6078      	str	r0, [r7, #4]
  SET_BIT(TIMx->CR1, TIM_CR1_CEN);
 8000330:	687b      	ldr	r3, [r7, #4]
 8000332:	681b      	ldr	r3, [r3, #0]
 8000334:	2201      	movs	r2, #1
 8000336:	431a      	orrs	r2, r3
 8000338:	687b      	ldr	r3, [r7, #4]
 800033a:	601a      	str	r2, [r3, #0]
}
 800033c:	46c0      	nop			; (mov r8, r8)
 800033e:	46bd      	mov	sp, r7
 8000340:	b002      	add	sp, #8
 8000342:	bd80      	pop	{r7, pc}

08000344 <LL_TIM_EnableARRPreload>:
  * @rmtoll CR1          ARPE          LL_TIM_EnableARRPreload
  * @param  TIMx Timer instance
  * @retval None
  */
__STATIC_INLINE void LL_TIM_EnableARRPreload(TIM_TypeDef *TIMx)
{
 8000344:	b580      	push	{r7, lr}
 8000346:	b082      	sub	sp, #8
 8000348:	af00      	add	r7, sp, #0
 800034a:	6078      	str	r0, [r7, #4]
  SET_BIT(TIMx->CR1, TIM_CR1_ARPE);
 800034c:	687b      	ldr	r3, [r7, #4]
 800034e:	681b      	ldr	r3, [r3, #0]
 8000350:	2280      	movs	r2, #128	; 0x80
 8000352:	431a      	orrs	r2, r3
 8000354:	687b      	ldr	r3, [r7, #4]
 8000356:	601a      	str	r2, [r3, #0]
}
 8000358:	46c0      	nop			; (mov r8, r8)
 800035a:	46bd      	mov	sp, r7
 800035c:	b002      	add	sp, #8
 800035e:	bd80      	pop	{r7, pc}

08000360 <LL_TIM_EnableIT_UPDATE>:
  * @rmtoll DIER         UIE           LL_TIM_EnableIT_UPDATE
  * @param  TIMx Timer instance
  * @retval None
  */
__STATIC_INLINE void LL_TIM_EnableIT_UPDATE(TIM_TypeDef *TIMx)
{
 8000360:	b580      	push	{r7, lr}
 8000362:	b082      	sub	sp, #8
 8000364:	af00      	add	r7, sp, #0
 8000366:	6078      	str	r0, [r7, #4]
  SET_BIT(TIMx->DIER, TIM_DIER_UIE);
 8000368:	687b      	ldr	r3, [r7, #4]
 800036a:	68db      	ldr	r3, [r3, #12]
 800036c:	2201      	movs	r2, #1
 800036e:	431a      	orrs	r2, r3
 8000370:	687b      	ldr	r3, [r7, #4]
 8000372:	60da      	str	r2, [r3, #12]
}
 8000374:	46c0      	nop			; (mov r8, r8)
 8000376:	46bd      	mov	sp, r7
 8000378:	b002      	add	sp, #8
 800037a:	bd80      	pop	{r7, pc}

0800037c <LL_USART_Enable>:
  * @rmtoll CR1          UE            LL_USART_Enable
  * @param  USARTx USART Instance
  * @retval None
  */
__STATIC_INLINE void LL_USART_Enable(USART_TypeDef *USARTx)
{
 800037c:	b580      	push	{r7, lr}
 800037e:	b082      	sub	sp, #8
 8000380:	af00      	add	r7, sp, #0
 8000382:	6078      	str	r0, [r7, #4]
  SET_BIT(USARTx->CR1, USART_CR1_UE);
 8000384:	687b      	ldr	r3, [r7, #4]
 8000386:	681b      	ldr	r3, [r3, #0]
 8000388:	2201      	movs	r2, #1
 800038a:	431a      	orrs	r2, r3
 800038c:	687b      	ldr	r3, [r7, #4]
 800038e:	601a      	str	r2, [r3, #0]
}
 8000390:	46c0      	nop			; (mov r8, r8)
 8000392:	46bd      	mov	sp, r7
 8000394:	b002      	add	sp, #8
 8000396:	bd80      	pop	{r7, pc}

08000398 <LL_USART_DisableFIFO>:
  * @rmtoll CR1          FIFOEN        LL_USART_DisableFIFO
  * @param  USARTx USART Instance
  * @retval None
  */
__STATIC_INLINE void LL_USART_DisableFIFO(USART_TypeDef *USARTx)
{
 8000398:	b580      	push	{r7, lr}
 800039a:	b082      	sub	sp, #8
 800039c:	af00      	add	r7, sp, #0
 800039e:	6078      	str	r0, [r7, #4]
  CLEAR_BIT(USARTx->CR1, USART_CR1_FIFOEN);
 80003a0:	687b      	ldr	r3, [r7, #4]
 80003a2:	681b      	ldr	r3, [r3, #0]
 80003a4:	4a03      	ldr	r2, [pc, #12]	; (80003b4 <LL_USART_DisableFIFO+0x1c>)
 80003a6:	401a      	ands	r2, r3
 80003a8:	687b      	ldr	r3, [r7, #4]
 80003aa:	601a      	str	r2, [r3, #0]
}
 80003ac:	46c0      	nop			; (mov r8, r8)
 80003ae:	46bd      	mov	sp, r7
 80003b0:	b002      	add	sp, #8
 80003b2:	bd80      	pop	{r7, pc}
 80003b4:	dfffffff 	.word	0xdfffffff

080003b8 <LL_USART_SetTXFIFOThreshold>:
  *         @arg @ref LL_USART_FIFOTHRESHOLD_7_8
  *         @arg @ref LL_USART_FIFOTHRESHOLD_8_8
  * @retval None
  */
__STATIC_INLINE void LL_USART_SetTXFIFOThreshold(USART_TypeDef *USARTx, uint32_t Threshold)
{
 80003b8:	b580      	push	{r7, lr}
 80003ba:	b086      	sub	sp, #24
 80003bc:	af00      	add	r7, sp, #0
 80003be:	6078      	str	r0, [r7, #4]
 80003c0:	6039      	str	r1, [r7, #0]
 */
__STATIC_FORCEINLINE uint32_t __get_PRIMASK(void)
{
  uint32_t result;

  __ASM volatile ("MRS %0, primask" : "=r" (result) :: "memory");
 80003c2:	f3ef 8310 	mrs	r3, PRIMASK
 80003c6:	60bb      	str	r3, [r7, #8]
  return(result);
 80003c8:	68bb      	ldr	r3, [r7, #8]
  ATOMIC_MODIFY_REG(USARTx->CR3, USART_CR3_TXFTCFG, Threshold << USART_CR3_TXFTCFG_Pos);
 80003ca:	617b      	str	r3, [r7, #20]
 80003cc:	2301      	movs	r3, #1
 80003ce:	60fb      	str	r3, [r7, #12]
  \details Assigns the given value to the Priority Mask Register.
  \param [in]    priMask  Priority Mask
 */
__STATIC_FORCEINLINE void __set_PRIMASK(uint32_t priMask)
{
  __ASM volatile ("MSR primask, %0" : : "r" (priMask) : "memory");
 80003d0:	68fb      	ldr	r3, [r7, #12]
 80003d2:	f383 8810 	msr	PRIMASK, r3
}
 80003d6:	46c0      	nop			; (mov r8, r8)
 80003d8:	687b      	ldr	r3, [r7, #4]
 80003da:	689b      	ldr	r3, [r3, #8]
 80003dc:	00db      	lsls	r3, r3, #3
 80003de:	08da      	lsrs	r2, r3, #3
 80003e0:	683b      	ldr	r3, [r7, #0]
 80003e2:	075b      	lsls	r3, r3, #29
 80003e4:	431a      	orrs	r2, r3
 80003e6:	687b      	ldr	r3, [r7, #4]
 80003e8:	609a      	str	r2, [r3, #8]
 80003ea:	697b      	ldr	r3, [r7, #20]
 80003ec:	613b      	str	r3, [r7, #16]
  __ASM volatile ("MSR primask, %0" : : "r" (priMask) : "memory");
 80003ee:	693b      	ldr	r3, [r7, #16]
 80003f0:	f383 8810 	msr	PRIMASK, r3
}
 80003f4:	46c0      	nop			; (mov r8, r8)
}
 80003f6:	46c0      	nop			; (mov r8, r8)
 80003f8:	46bd      	mov	sp, r7
 80003fa:	b006      	add	sp, #24
 80003fc:	bd80      	pop	{r7, pc}
	...

08000400 <LL_USART_SetRXFIFOThreshold>:
  *         @arg @ref LL_USART_FIFOTHRESHOLD_7_8
  *         @arg @ref LL_USART_FIFOTHRESHOLD_8_8
  * @retval None
  */
__STATIC_INLINE void LL_USART_SetRXFIFOThreshold(USART_TypeDef *USARTx, uint32_t Threshold)
{
 8000400:	b580      	push	{r7, lr}
 8000402:	b086      	sub	sp, #24
 8000404:	af00      	add	r7, sp, #0
 8000406:	6078      	str	r0, [r7, #4]
 8000408:	6039      	str	r1, [r7, #0]
  __ASM volatile ("MRS %0, primask" : "=r" (result) :: "memory");
 800040a:	f3ef 8310 	mrs	r3, PRIMASK
 800040e:	60bb      	str	r3, [r7, #8]
  return(result);
 8000410:	68bb      	ldr	r3, [r7, #8]
  ATOMIC_MODIFY_REG(USARTx->CR3, USART_CR3_RXFTCFG, Threshold << USART_CR3_RXFTCFG_Pos);
 8000412:	617b      	str	r3, [r7, #20]
 8000414:	2301      	movs	r3, #1
 8000416:	60fb      	str	r3, [r7, #12]
  __ASM volatile ("MSR primask, %0" : : "r" (priMask) : "memory");
 8000418:	68fb      	ldr	r3, [r7, #12]
 800041a:	f383 8810 	msr	PRIMASK, r3
}
 800041e:	46c0      	nop			; (mov r8, r8)
 8000420:	687b      	ldr	r3, [r7, #4]
 8000422:	689b      	ldr	r3, [r3, #8]
 8000424:	4a08      	ldr	r2, [pc, #32]	; (8000448 <LL_USART_SetRXFIFOThreshold+0x48>)
 8000426:	401a      	ands	r2, r3
 8000428:	683b      	ldr	r3, [r7, #0]
 800042a:	065b      	lsls	r3, r3, #25
 800042c:	431a      	orrs	r2, r3
 800042e:	687b      	ldr	r3, [r7, #4]
 8000430:	609a      	str	r2, [r3, #8]
 8000432:	697b      	ldr	r3, [r7, #20]
 8000434:	613b      	str	r3, [r7, #16]
  __ASM volatile ("MSR primask, %0" : : "r" (priMask) : "memory");
 8000436:	693b      	ldr	r3, [r7, #16]
 8000438:	f383 8810 	msr	PRIMASK, r3
}
 800043c:	46c0      	nop			; (mov r8, r8)
}
 800043e:	46c0      	nop			; (mov r8, r8)
 8000440:	46bd      	mov	sp, r7
 8000442:	b006      	add	sp, #24
 8000444:	bd80      	pop	{r7, pc}
 8000446:	46c0      	nop			; (mov r8, r8)
 8000448:	f1ffffff 	.word	0xf1ffffff

0800044c <LL_USART_ConfigAsyncMode>:
  *         CR3          HDSEL         LL_USART_ConfigAsyncMode
  * @param  USARTx USART Instance
  * @retval None
  */
__STATIC_INLINE void LL_USART_ConfigAsyncMode(USART_TypeDef *USARTx)
{
 800044c:	b580      	push	{r7, lr}
 800044e:	b082      	sub	sp, #8
 8000450:	af00      	add	r7, sp, #0
 8000452:	6078      	str	r0, [r7, #4]
  /* In Asynchronous mode, the following bits must be kept cleared:
  - LINEN, CLKEN bits in the USART_CR2 register,
  - SCEN, IREN and HDSEL bits in the USART_CR3 register.
  */
  CLEAR_BIT(USARTx->CR2, (USART_CR2_LINEN | USART_CR2_CLKEN));
 8000454:	687b      	ldr	r3, [r7, #4]
 8000456:	685b      	ldr	r3, [r3, #4]
 8000458:	4a07      	ldr	r2, [pc, #28]	; (8000478 <LL_USART_ConfigAsyncMode+0x2c>)
 800045a:	401a      	ands	r2, r3
 800045c:	687b      	ldr	r3, [r7, #4]
 800045e:	605a      	str	r2, [r3, #4]
  CLEAR_BIT(USARTx->CR3, (USART_CR3_SCEN | USART_CR3_IREN | USART_CR3_HDSEL));
 8000460:	687b      	ldr	r3, [r7, #4]
 8000462:	689b      	ldr	r3, [r3, #8]
 8000464:	222a      	movs	r2, #42	; 0x2a
 8000466:	4393      	bics	r3, r2
 8000468:	001a      	movs	r2, r3
 800046a:	687b      	ldr	r3, [r7, #4]
 800046c:	609a      	str	r2, [r3, #8]
}
 800046e:	46c0      	nop			; (mov r8, r8)
 8000470:	46bd      	mov	sp, r7
 8000472:	b002      	add	sp, #8
 8000474:	bd80      	pop	{r7, pc}
 8000476:	46c0      	nop			; (mov r8, r8)
 8000478:	ffffb7ff 	.word	0xffffb7ff

0800047c <LL_USART_IsActiveFlag_TEACK>:
  * @rmtoll ISR          TEACK         LL_USART_IsActiveFlag_TEACK
  * @param  USARTx USART Instance
  * @retval State of bit (1 or 0).
  */
__STATIC_INLINE uint32_t LL_USART_IsActiveFlag_TEACK(const USART_TypeDef *USARTx)
{
 800047c:	b580      	push	{r7, lr}
 800047e:	b082      	sub	sp, #8
 8000480:	af00      	add	r7, sp, #0
 8000482:	6078      	str	r0, [r7, #4]
  return ((READ_BIT(USARTx->ISR, USART_ISR_TEACK) == (USART_ISR_TEACK)) ? 1UL : 0UL);
 8000484:	687b      	ldr	r3, [r7, #4]
 8000486:	69da      	ldr	r2, [r3, #28]
 8000488:	2380      	movs	r3, #128	; 0x80
 800048a:	039b      	lsls	r3, r3, #14
 800048c:	401a      	ands	r2, r3
 800048e:	2380      	movs	r3, #128	; 0x80
 8000490:	039b      	lsls	r3, r3, #14
 8000492:	429a      	cmp	r2, r3
 8000494:	d101      	bne.n	800049a <LL_USART_IsActiveFlag_TEACK+0x1e>
 8000496:	2301      	movs	r3, #1
 8000498:	e000      	b.n	800049c <LL_USART_IsActiveFlag_TEACK+0x20>
 800049a:	2300      	movs	r3, #0
}
 800049c:	0018      	movs	r0, r3
 800049e:	46bd      	mov	sp, r7
 80004a0:	b002      	add	sp, #8
 80004a2:	bd80      	pop	{r7, pc}

080004a4 <LL_USART_IsActiveFlag_REACK>:
  * @rmtoll ISR          REACK         LL_USART_IsActiveFlag_REACK
  * @param  USARTx USART Instance
  * @retval State of bit (1 or 0).
  */
__STATIC_INLINE uint32_t LL_USART_IsActiveFlag_REACK(const USART_TypeDef *USARTx)
{
 80004a4:	b580      	push	{r7, lr}
 80004a6:	b082      	sub	sp, #8
 80004a8:	af00      	add	r7, sp, #0
 80004aa:	6078      	str	r0, [r7, #4]
  return ((READ_BIT(USARTx->ISR, USART_ISR_REACK) == (USART_ISR_REACK)) ? 1UL : 0UL);
 80004ac:	687b      	ldr	r3, [r7, #4]
 80004ae:	69da      	ldr	r2, [r3, #28]
 80004b0:	2380      	movs	r3, #128	; 0x80
 80004b2:	03db      	lsls	r3, r3, #15
 80004b4:	401a      	ands	r2, r3
 80004b6:	2380      	movs	r3, #128	; 0x80
 80004b8:	03db      	lsls	r3, r3, #15
 80004ba:	429a      	cmp	r2, r3
 80004bc:	d101      	bne.n	80004c2 <LL_USART_IsActiveFlag_REACK+0x1e>
 80004be:	2301      	movs	r3, #1
 80004c0:	e000      	b.n	80004c4 <LL_USART_IsActiveFlag_REACK+0x20>
 80004c2:	2300      	movs	r3, #0
}
 80004c4:	0018      	movs	r0, r3
 80004c6:	46bd      	mov	sp, r7
 80004c8:	b002      	add	sp, #8
 80004ca:	bd80      	pop	{r7, pc}

080004cc <LL_USART_EnableIT_RXNE_RXFNE>:
  * @rmtoll CR1        RXNEIE_RXFNEIE  LL_USART_EnableIT_RXNE_RXFNE
  * @param  USARTx USART Instance
  * @retval None
  */
__STATIC_INLINE void LL_USART_EnableIT_RXNE_RXFNE(USART_TypeDef *USARTx)
{
 80004cc:	b580      	push	{r7, lr}
 80004ce:	b086      	sub	sp, #24
 80004d0:	af00      	add	r7, sp, #0
 80004d2:	6078      	str	r0, [r7, #4]
  __ASM volatile ("MRS %0, primask" : "=r" (result) :: "memory");
 80004d4:	f3ef 8310 	mrs	r3, PRIMASK
 80004d8:	60bb      	str	r3, [r7, #8]
  return(result);
 80004da:	68bb      	ldr	r3, [r7, #8]
  ATOMIC_SET_BIT(USARTx->CR1, USART_CR1_RXNEIE_RXFNEIE);
 80004dc:	617b      	str	r3, [r7, #20]
 80004de:	2301      	movs	r3, #1
 80004e0:	60fb      	str	r3, [r7, #12]
  __ASM volatile ("MSR primask, %0" : : "r" (priMask) : "memory");
 80004e2:	68fb      	ldr	r3, [r7, #12]
 80004e4:	f383 8810 	msr	PRIMASK, r3
}
 80004e8:	46c0      	nop			; (mov r8, r8)
 80004ea:	687b      	ldr	r3, [r7, #4]
 80004ec:	681b      	ldr	r3, [r3, #0]
 80004ee:	2220      	movs	r2, #32
 80004f0:	431a      	orrs	r2, r3
 80004f2:	687b      	ldr	r3, [r7, #4]
 80004f4:	601a      	str	r2, [r3, #0]
 80004f6:	697b      	ldr	r3, [r7, #20]
 80004f8:	613b      	str	r3, [r7, #16]
  __ASM volatile ("MSR primask, %0" : : "r" (priMask) : "memory");
 80004fa:	693b      	ldr	r3, [r7, #16]
 80004fc:	f383 8810 	msr	PRIMASK, r3
}
 8000500:	46c0      	nop			; (mov r8, r8)
}
 8000502:	46c0      	nop			; (mov r8, r8)
 8000504:	46bd      	mov	sp, r7
 8000506:	b006      	add	sp, #24
 8000508:	bd80      	pop	{r7, pc}

0800050a <LL_GPIO_SetOutputPin>:
  *         @arg @ref LL_GPIO_PIN_15
  *         @arg @ref LL_GPIO_PIN_ALL
  * @retval None
  */
__STATIC_INLINE void LL_GPIO_SetOutputPin(GPIO_TypeDef *GPIOx, uint32_t PinMask)
{
 800050a:	b580      	push	{r7, lr}
 800050c:	b082      	sub	sp, #8
 800050e:	af00      	add	r7, sp, #0
 8000510:	6078      	str	r0, [r7, #4]
 8000512:	6039      	str	r1, [r7, #0]
  WRITE_REG(GPIOx->BSRR, PinMask);
 8000514:	687b      	ldr	r3, [r7, #4]
 8000516:	683a      	ldr	r2, [r7, #0]
 8000518:	619a      	str	r2, [r3, #24]
}
 800051a:	46c0      	nop			; (mov r8, r8)
 800051c:	46bd      	mov	sp, r7
 800051e:	b002      	add	sp, #8
 8000520:	bd80      	pop	{r7, pc}

08000522 <LL_GPIO_ResetOutputPin>:
  *         @arg @ref LL_GPIO_PIN_15
  *         @arg @ref LL_GPIO_PIN_ALL
  * @retval None
  */
__STATIC_INLINE void LL_GPIO_ResetOutputPin(GPIO_TypeDef *GPIOx, uint32_t PinMask)
{
 8000522:	b580      	push	{r7, lr}
 8000524:	b082      	sub	sp, #8
 8000526:	af00      	add	r7, sp, #0
 8000528:	6078      	str	r0, [r7, #4]
 800052a:	6039      	str	r1, [r7, #0]
  WRITE_REG(GPIOx->BRR, PinMask);
 800052c:	687b      	ldr	r3, [r7, #4]
 800052e:	683a      	ldr	r2, [r7, #0]
 8000530:	629a      	str	r2, [r3, #40]	; 0x28
}
 8000532:	46c0      	nop			; (mov r8, r8)
 8000534:	46bd      	mov	sp, r7
 8000536:	b002      	add	sp, #8
 8000538:	bd80      	pop	{r7, pc}
	...

0800053c <LL_APB1_GRP1_EnableClock>:
  *         @arg @ref LL_APB1_GRP1_PERIPH_LPTIM1  (1)
  * @note Peripheral marked with (1) are not available all devices
  * @retval None
  */
__STATIC_INLINE void LL_APB1_GRP1_EnableClock(uint32_t Periphs)
{
 800053c:	b580      	push	{r7, lr}
 800053e:	b084      	sub	sp, #16
 8000540:	af00      	add	r7, sp, #0
 8000542:	6078      	str	r0, [r7, #4]
  __IO uint32_t tmpreg;
  SET_BIT(RCC->APBENR1, Periphs);
 8000544:	4b07      	ldr	r3, [pc, #28]	; (8000564 <LL_APB1_GRP1_EnableClock+0x28>)
 8000546:	6bd9      	ldr	r1, [r3, #60]	; 0x3c
 8000548:	4b06      	ldr	r3, [pc, #24]	; (8000564 <LL_APB1_GRP1_EnableClock+0x28>)
 800054a:	687a      	ldr	r2, [r7, #4]
 800054c:	430a      	orrs	r2, r1
 800054e:	63da      	str	r2, [r3, #60]	; 0x3c
  /* Delay after an RCC peripheral clock enabling */
  tmpreg = READ_BIT(RCC->APBENR1, Periphs);
 8000550:	4b04      	ldr	r3, [pc, #16]	; (8000564 <LL_APB1_GRP1_EnableClock+0x28>)
 8000552:	6bdb      	ldr	r3, [r3, #60]	; 0x3c
 8000554:	687a      	ldr	r2, [r7, #4]
 8000556:	4013      	ands	r3, r2
 8000558:	60fb      	str	r3, [r7, #12]
  (void)tmpreg;
 800055a:	68fb      	ldr	r3, [r7, #12]
}
 800055c:	46c0      	nop			; (mov r8, r8)
 800055e:	46bd      	mov	sp, r7
 8000560:	b004      	add	sp, #16
 8000562:	bd80      	pop	{r7, pc}
 8000564:	40021000 	.word	0x40021000

08000568 <LL_APB2_GRP1_EnableClock>:
  *         @arg @ref LL_APB2_GRP1_PERIPH_ADC
  * @note (*) peripheral not available on all devices
  * @retval None
  */
__STATIC_INLINE void LL_APB2_GRP1_EnableClock(uint32_t Periphs)
{
 8000568:	b580      	push	{r7, lr}
 800056a:	b084      	sub	sp, #16
 800056c:	af00      	add	r7, sp, #0
 800056e:	6078      	str	r0, [r7, #4]
  __IO uint32_t tmpreg;
  SET_BIT(RCC->APBENR2, Periphs);
 8000570:	4b07      	ldr	r3, [pc, #28]	; (8000590 <LL_APB2_GRP1_EnableClock+0x28>)
 8000572:	6c19      	ldr	r1, [r3, #64]	; 0x40
 8000574:	4b06      	ldr	r3, [pc, #24]	; (8000590 <LL_APB2_GRP1_EnableClock+0x28>)
 8000576:	687a      	ldr	r2, [r7, #4]
 8000578:	430a      	orrs	r2, r1
 800057a:	641a      	str	r2, [r3, #64]	; 0x40
  /* Delay after an RCC peripheral clock enabling */
  tmpreg = READ_BIT(RCC->APBENR2, Periphs);
 800057c:	4b04      	ldr	r3, [pc, #16]	; (8000590 <LL_APB2_GRP1_EnableClock+0x28>)
 800057e:	6c1b      	ldr	r3, [r3, #64]	; 0x40
 8000580:	687a      	ldr	r2, [r7, #4]
 8000582:	4013      	ands	r3, r2
 8000584:	60fb      	str	r3, [r7, #12]
  (void)tmpreg;
 8000586:	68fb      	ldr	r3, [r7, #12]
}
 8000588:	46c0      	nop			; (mov r8, r8)
 800058a:	46bd      	mov	sp, r7
 800058c:	b004      	add	sp, #16
 800058e:	bd80      	pop	{r7, pc}
 8000590:	40021000 	.word	0x40021000

08000594 <LL_IOP_GRP1_EnableClock>:
  *         @arg @ref LL_IOP_GRP1_PERIPH_GPIOE
  *         @arg @ref LL_IOP_GRP1_PERIPH_GPIOF
  * @retval None
  */
__STATIC_INLINE void LL_IOP_GRP1_EnableClock(uint32_t Periphs)
{
 8000594:	b580      	push	{r7, lr}
 8000596:	b084      	sub	sp, #16
 8000598:	af00      	add	r7, sp, #0
 800059a:	6078      	str	r0, [r7, #4]
  __IO uint32_t tmpreg;
  SET_BIT(RCC->IOPENR, Periphs);
 800059c:	4b07      	ldr	r3, [pc, #28]	; (80005bc <LL_IOP_GRP1_EnableClock+0x28>)
 800059e:	6b59      	ldr	r1, [r3, #52]	; 0x34
 80005a0:	4b06      	ldr	r3, [pc, #24]	; (80005bc <LL_IOP_GRP1_EnableClock+0x28>)
 80005a2:	687a      	ldr	r2, [r7, #4]
 80005a4:	430a      	orrs	r2, r1
 80005a6:	635a      	str	r2, [r3, #52]	; 0x34
  /* Delay after an RCC peripheral clock enabling */
  tmpreg = READ_BIT(RCC->IOPENR, Periphs);
 80005a8:	4b04      	ldr	r3, [pc, #16]	; (80005bc <LL_IOP_GRP1_EnableClock+0x28>)
 80005aa:	6b5b      	ldr	r3, [r3, #52]	; 0x34
 80005ac:	687a      	ldr	r2, [r7, #4]
 80005ae:	4013      	ands	r3, r2
 80005b0:	60fb      	str	r3, [r7, #12]
  (void)tmpreg;
 80005b2:	68fb      	ldr	r3, [r7, #12]
}
 80005b4:	46c0      	nop			; (mov r8, r8)
 80005b6:	46bd      	mov	sp, r7
 80005b8:	b004      	add	sp, #16
 80005ba:	bd80      	pop	{r7, pc}
 80005bc:	40021000 	.word	0x40021000

080005c0 <USART2_Send>:
	uint8_t i = 0;
	while(str[i])
	USART1_Send (str[i++]);
}

void USART2_Send (char chr){
 80005c0:	b580      	push	{r7, lr}
 80005c2:	b082      	sub	sp, #8
 80005c4:	af00      	add	r7, sp, #0
 80005c6:	0002      	movs	r2, r0
 80005c8:	1dfb      	adds	r3, r7, #7
 80005ca:	701a      	strb	r2, [r3, #0]
	while (!(USART2->ISR & USART_ISR_TC));
 80005cc:	46c0      	nop			; (mov r8, r8)
 80005ce:	4b06      	ldr	r3, [pc, #24]	; (80005e8 <USART2_Send+0x28>)
 80005d0:	69db      	ldr	r3, [r3, #28]
 80005d2:	2240      	movs	r2, #64	; 0x40
 80005d4:	4013      	ands	r3, r2
 80005d6:	d0fa      	beq.n	80005ce <USART2_Send+0xe>
	USART2->TDR = chr;
 80005d8:	4b03      	ldr	r3, [pc, #12]	; (80005e8 <USART2_Send+0x28>)
 80005da:	1dfa      	adds	r2, r7, #7
 80005dc:	7812      	ldrb	r2, [r2, #0]
 80005de:	629a      	str	r2, [r3, #40]	; 0x28
}
 80005e0:	46c0      	nop			; (mov r8, r8)
 80005e2:	46bd      	mov	sp, r7
 80005e4:	b002      	add	sp, #8
 80005e6:	bd80      	pop	{r7, pc}
 80005e8:	40004400 	.word	0x40004400

080005ec <Send_String_To_TRX>:

void Send_String_To_TRX (char* str){
 80005ec:	b580      	push	{r7, lr}
 80005ee:	b084      	sub	sp, #16
 80005f0:	af00      	add	r7, sp, #0
 80005f2:	6078      	str	r0, [r7, #4]
	uint8_t i = 0;
 80005f4:	230f      	movs	r3, #15
 80005f6:	18fb      	adds	r3, r7, r3
 80005f8:	2200      	movs	r2, #0
 80005fa:	701a      	strb	r2, [r3, #0]
	while(str[i])
 80005fc:	e00c      	b.n	8000618 <Send_String_To_TRX+0x2c>
	USART2_Send (str[i++]);
 80005fe:	220f      	movs	r2, #15
 8000600:	18bb      	adds	r3, r7, r2
 8000602:	781b      	ldrb	r3, [r3, #0]
 8000604:	18ba      	adds	r2, r7, r2
 8000606:	1c59      	adds	r1, r3, #1
 8000608:	7011      	strb	r1, [r2, #0]
 800060a:	001a      	movs	r2, r3
 800060c:	687b      	ldr	r3, [r7, #4]
 800060e:	189b      	adds	r3, r3, r2
 8000610:	781b      	ldrb	r3, [r3, #0]
 8000612:	0018      	movs	r0, r3
 8000614:	f7ff ffd4 	bl	80005c0 <USART2_Send>
	while(str[i])
 8000618:	230f      	movs	r3, #15
 800061a:	18fb      	adds	r3, r7, r3
 800061c:	781b      	ldrb	r3, [r3, #0]
 800061e:	687a      	ldr	r2, [r7, #4]
 8000620:	18d3      	adds	r3, r2, r3
 8000622:	781b      	ldrb	r3, [r3, #0]
 8000624:	2b00      	cmp	r3, #0
 8000626:	d1ea      	bne.n	80005fe <Send_String_To_TRX+0x12>
}
 8000628:	46c0      	nop			; (mov r8, r8)
 800062a:	46c0      	nop			; (mov r8, r8)
 800062c:	46bd      	mov	sp, r7
 800062e:	b004      	add	sp, #16
 8000630:	bd80      	pop	{r7, pc}

08000632 <ResetAllOuts>:

void ResetAllOuts(){
 8000632:	b580      	push	{r7, lr}
 8000634:	af00      	add	r7, sp, #0
	LL_GPIO_ResetOutputPin(OUT_160_GPIO_Port, OUT_160_Pin);
 8000636:	23a0      	movs	r3, #160	; 0xa0
 8000638:	05db      	lsls	r3, r3, #23
 800063a:	2110      	movs	r1, #16
 800063c:	0018      	movs	r0, r3
 800063e:	f7ff ff70 	bl	8000522 <LL_GPIO_ResetOutputPin>
	LL_GPIO_ResetOutputPin(OUT_80_GPIO_Port, OUT_80_Pin);
 8000642:	23a0      	movs	r3, #160	; 0xa0
 8000644:	05db      	lsls	r3, r3, #23
 8000646:	2120      	movs	r1, #32
 8000648:	0018      	movs	r0, r3
 800064a:	f7ff ff6a 	bl	8000522 <LL_GPIO_ResetOutputPin>
	LL_GPIO_ResetOutputPin(OUT_40_GPIO_Port, OUT_40_Pin);
 800064e:	23a0      	movs	r3, #160	; 0xa0
 8000650:	05db      	lsls	r3, r3, #23
 8000652:	2140      	movs	r1, #64	; 0x40
 8000654:	0018      	movs	r0, r3
 8000656:	f7ff ff64 	bl	8000522 <LL_GPIO_ResetOutputPin>
	LL_GPIO_ResetOutputPin(OUT_30_20_GPIO_Port, OUT_30_20_Pin);
 800065a:	23a0      	movs	r3, #160	; 0xa0
 800065c:	05db      	lsls	r3, r3, #23
 800065e:	2180      	movs	r1, #128	; 0x80
 8000660:	0018      	movs	r0, r3
 8000662:	f7ff ff5e 	bl	8000522 <LL_GPIO_ResetOutputPin>
	LL_GPIO_ResetOutputPin(OUT_17_15_GPIO_Port, OUT_17_15_Pin);
 8000666:	2380      	movs	r3, #128	; 0x80
 8000668:	005a      	lsls	r2, r3, #1
 800066a:	23a0      	movs	r3, #160	; 0xa0
 800066c:	05db      	lsls	r3, r3, #23
 800066e:	0011      	movs	r1, r2
 8000670:	0018      	movs	r0, r3
 8000672:	f7ff ff56 	bl	8000522 <LL_GPIO_ResetOutputPin>
	LL_GPIO_ResetOutputPin(OUT_12_10_GPIO_Port, OUT_12_10_Pin);
 8000676:	2380      	movs	r3, #128	; 0x80
 8000678:	011a      	lsls	r2, r3, #4
 800067a:	23a0      	movs	r3, #160	; 0xa0
 800067c:	05db      	lsls	r3, r3, #23
 800067e:	0011      	movs	r1, r2
 8000680:	0018      	movs	r0, r3
 8000682:	f7ff ff4e 	bl	8000522 <LL_GPIO_ResetOutputPin>
	LL_GPIO_ResetOutputPin(OUT_6_GPIO_Port, OUT_6_Pin);
 8000686:	2380      	movs	r3, #128	; 0x80
 8000688:	015a      	lsls	r2, r3, #5
 800068a:	23a0      	movs	r3, #160	; 0xa0
 800068c:	05db      	lsls	r3, r3, #23
 800068e:	0011      	movs	r1, r2
 8000690:	0018      	movs	r0, r3
 8000692:	f7ff ff46 	bl	8000522 <LL_GPIO_ResetOutputPin>
}
 8000696:	46c0      	nop			; (mov r8, r8)
 8000698:	46bd      	mov	sp, r7
 800069a:	bd80      	pop	{r7, pc}

0800069c <SetOutput>:

void SetOutput(){
 800069c:	b580      	push	{r7, lr}
 800069e:	af00      	add	r7, sp, #0
	if (flag_band==160){
 80006a0:	4b40      	ldr	r3, [pc, #256]	; (80007a4 <SetOutput+0x108>)
 80006a2:	681b      	ldr	r3, [r3, #0]
 80006a4:	2ba0      	cmp	r3, #160	; 0xa0
 80006a6:	d10a      	bne.n	80006be <SetOutput+0x22>
		ResetAllOuts();
 80006a8:	f7ff ffc3 	bl	8000632 <ResetAllOuts>
		LL_GPIO_SetOutputPin(OUT_160_GPIO_Port, OUT_160_Pin);
 80006ac:	23a0      	movs	r3, #160	; 0xa0
 80006ae:	05db      	lsls	r3, r3, #23
 80006b0:	2110      	movs	r1, #16
 80006b2:	0018      	movs	r0, r3
 80006b4:	f7ff ff29 	bl	800050a <LL_GPIO_SetOutputPin>
		flag_band=0;
 80006b8:	4b3a      	ldr	r3, [pc, #232]	; (80007a4 <SetOutput+0x108>)
 80006ba:	2200      	movs	r2, #0
 80006bc:	601a      	str	r2, [r3, #0]
	}
	if (flag_band==80){
 80006be:	4b39      	ldr	r3, [pc, #228]	; (80007a4 <SetOutput+0x108>)
 80006c0:	681b      	ldr	r3, [r3, #0]
 80006c2:	2b50      	cmp	r3, #80	; 0x50
 80006c4:	d10a      	bne.n	80006dc <SetOutput+0x40>
		ResetAllOuts();
 80006c6:	f7ff ffb4 	bl	8000632 <ResetAllOuts>
		LL_GPIO_SetOutputPin(OUT_80_GPIO_Port, OUT_80_Pin);
 80006ca:	23a0      	movs	r3, #160	; 0xa0
 80006cc:	05db      	lsls	r3, r3, #23
 80006ce:	2120      	movs	r1, #32
 80006d0:	0018      	movs	r0, r3
 80006d2:	f7ff ff1a 	bl	800050a <LL_GPIO_SetOutputPin>
		flag_band=0;
 80006d6:	4b33      	ldr	r3, [pc, #204]	; (80007a4 <SetOutput+0x108>)
 80006d8:	2200      	movs	r2, #0
 80006da:	601a      	str	r2, [r3, #0]
		}
	if ((flag_band==40)||(flag_band==60)){
 80006dc:	4b31      	ldr	r3, [pc, #196]	; (80007a4 <SetOutput+0x108>)
 80006de:	681b      	ldr	r3, [r3, #0]
 80006e0:	2b28      	cmp	r3, #40	; 0x28
 80006e2:	d003      	beq.n	80006ec <SetOutput+0x50>
 80006e4:	4b2f      	ldr	r3, [pc, #188]	; (80007a4 <SetOutput+0x108>)
 80006e6:	681b      	ldr	r3, [r3, #0]
 80006e8:	2b3c      	cmp	r3, #60	; 0x3c
 80006ea:	d10a      	bne.n	8000702 <SetOutput+0x66>
		ResetAllOuts();
 80006ec:	f7ff ffa1 	bl	8000632 <ResetAllOuts>
		LL_GPIO_SetOutputPin(OUT_40_GPIO_Port, OUT_40_Pin);
 80006f0:	23a0      	movs	r3, #160	; 0xa0
 80006f2:	05db      	lsls	r3, r3, #23
 80006f4:	2140      	movs	r1, #64	; 0x40
 80006f6:	0018      	movs	r0, r3
 80006f8:	f7ff ff07 	bl	800050a <LL_GPIO_SetOutputPin>
		flag_band=0;
 80006fc:	4b29      	ldr	r3, [pc, #164]	; (80007a4 <SetOutput+0x108>)
 80006fe:	2200      	movs	r2, #0
 8000700:	601a      	str	r2, [r3, #0]
		}
	if ((flag_band==30)||(flag_band==20)){
 8000702:	4b28      	ldr	r3, [pc, #160]	; (80007a4 <SetOutput+0x108>)
 8000704:	681b      	ldr	r3, [r3, #0]
 8000706:	2b1e      	cmp	r3, #30
 8000708:	d003      	beq.n	8000712 <SetOutput+0x76>
 800070a:	4b26      	ldr	r3, [pc, #152]	; (80007a4 <SetOutput+0x108>)
 800070c:	681b      	ldr	r3, [r3, #0]
 800070e:	2b14      	cmp	r3, #20
 8000710:	d10a      	bne.n	8000728 <SetOutput+0x8c>
		ResetAllOuts();
 8000712:	f7ff ff8e 	bl	8000632 <ResetAllOuts>
		LL_GPIO_SetOutputPin(OUT_30_20_GPIO_Port, OUT_30_20_Pin);
 8000716:	23a0      	movs	r3, #160	; 0xa0
 8000718:	05db      	lsls	r3, r3, #23
 800071a:	2180      	movs	r1, #128	; 0x80
 800071c:	0018      	movs	r0, r3
 800071e:	f7ff fef4 	bl	800050a <LL_GPIO_SetOutputPin>
		flag_band=0;
 8000722:	4b20      	ldr	r3, [pc, #128]	; (80007a4 <SetOutput+0x108>)
 8000724:	2200      	movs	r2, #0
 8000726:	601a      	str	r2, [r3, #0]
		}
	if ((flag_band==17)||(flag_band==15)){
 8000728:	4b1e      	ldr	r3, [pc, #120]	; (80007a4 <SetOutput+0x108>)
 800072a:	681b      	ldr	r3, [r3, #0]
 800072c:	2b11      	cmp	r3, #17
 800072e:	d003      	beq.n	8000738 <SetOutput+0x9c>
 8000730:	4b1c      	ldr	r3, [pc, #112]	; (80007a4 <SetOutput+0x108>)
 8000732:	681b      	ldr	r3, [r3, #0]
 8000734:	2b0f      	cmp	r3, #15
 8000736:	d10c      	bne.n	8000752 <SetOutput+0xb6>
		ResetAllOuts();
 8000738:	f7ff ff7b 	bl	8000632 <ResetAllOuts>
		LL_GPIO_SetOutputPin(OUT_17_15_GPIO_Port, OUT_17_15_Pin);
 800073c:	2380      	movs	r3, #128	; 0x80
 800073e:	005a      	lsls	r2, r3, #1
 8000740:	23a0      	movs	r3, #160	; 0xa0
 8000742:	05db      	lsls	r3, r3, #23
 8000744:	0011      	movs	r1, r2
 8000746:	0018      	movs	r0, r3
 8000748:	f7ff fedf 	bl	800050a <LL_GPIO_SetOutputPin>
		flag_band=0;
 800074c:	4b15      	ldr	r3, [pc, #84]	; (80007a4 <SetOutput+0x108>)
 800074e:	2200      	movs	r2, #0
 8000750:	601a      	str	r2, [r3, #0]
		}
	if ((flag_band==12)||(flag_band==10)){
 8000752:	4b14      	ldr	r3, [pc, #80]	; (80007a4 <SetOutput+0x108>)
 8000754:	681b      	ldr	r3, [r3, #0]
 8000756:	2b0c      	cmp	r3, #12
 8000758:	d003      	beq.n	8000762 <SetOutput+0xc6>
 800075a:	4b12      	ldr	r3, [pc, #72]	; (80007a4 <SetOutput+0x108>)
 800075c:	681b      	ldr	r3, [r3, #0]
 800075e:	2b0a      	cmp	r3, #10
 8000760:	d10c      	bne.n	800077c <SetOutput+0xe0>
		ResetAllOuts();
 8000762:	f7ff ff66 	bl	8000632 <ResetAllOuts>
		LL_GPIO_SetOutputPin(OUT_12_10_GPIO_Port, OUT_12_10_Pin);
 8000766:	2380      	movs	r3, #128	; 0x80
 8000768:	011a      	lsls	r2, r3, #4
 800076a:	23a0      	movs	r3, #160	; 0xa0
 800076c:	05db      	lsls	r3, r3, #23
 800076e:	0011      	movs	r1, r2
 8000770:	0018      	movs	r0, r3
 8000772:	f7ff feca 	bl	800050a <LL_GPIO_SetOutputPin>
		flag_band=0;
 8000776:	4b0b      	ldr	r3, [pc, #44]	; (80007a4 <SetOutput+0x108>)
 8000778:	2200      	movs	r2, #0
 800077a:	601a      	str	r2, [r3, #0]
		}
	if (flag_band==6){
 800077c:	4b09      	ldr	r3, [pc, #36]	; (80007a4 <SetOutput+0x108>)
 800077e:	681b      	ldr	r3, [r3, #0]
 8000780:	2b06      	cmp	r3, #6
 8000782:	d10c      	bne.n	800079e <SetOutput+0x102>
		ResetAllOuts();
 8000784:	f7ff ff55 	bl	8000632 <ResetAllOuts>
		LL_GPIO_SetOutputPin(OUT_6_GPIO_Port, OUT_6_Pin);
 8000788:	2380      	movs	r3, #128	; 0x80
 800078a:	015a      	lsls	r2, r3, #5
 800078c:	23a0      	movs	r3, #160	; 0xa0
 800078e:	05db      	lsls	r3, r3, #23
 8000790:	0011      	movs	r1, r2
 8000792:	0018      	movs	r0, r3
 8000794:	f7ff feb9 	bl	800050a <LL_GPIO_SetOutputPin>
		flag_band=0;
 8000798:	4b02      	ldr	r3, [pc, #8]	; (80007a4 <SetOutput+0x108>)
 800079a:	2200      	movs	r2, #0
 800079c:	601a      	str	r2, [r3, #0]
		}
	/*if (flag_band==0){
		TRXData[5] = TRXData[6] = TRXData[7] = TRXData[0] = TRXData[1] = '0';
	}*/

}
 800079e:	46c0      	nop			; (mov r8, r8)
 80007a0:	46bd      	mov	sp, r7
 80007a2:	bd80      	pop	{r7, pc}
 80007a4:	20000028 	.word	0x20000028

080007a8 <main>:
/**
  * @brief  The application entry point.
  * @retval int
  */
int main(void)
{
 80007a8:	b580      	push	{r7, lr}
 80007aa:	af00      	add	r7, sp, #0
  /* USER CODE END 1 */

  /* MCU Configuration--------------------------------------------------------*/

  /* Reset of all peripherals, Initializes the Flash interface and the Systick. */
  HAL_Init();
 80007ac:	f000 fdac 	bl	8001308 <HAL_Init>
  /* USER CODE BEGIN Init */

  /* USER CODE END Init */

  /* Configure the system clock */
  SystemClock_Config();
 80007b0:	f000 f84a 	bl	8000848 <SystemClock_Config>
  /* USER CODE BEGIN SysInit */

  /* USER CODE END SysInit */

  /* Initialize all configured peripherals */
  MX_GPIO_Init();
 80007b4:	f000 fa0c 	bl	8000bd0 <MX_GPIO_Init>
  MX_USART1_UART_Init();
 80007b8:	f000 f8c4 	bl	8000944 <MX_USART1_UART_Init>
  MX_USART2_UART_Init();
 80007bc:	f000 f978 	bl	8000ab0 <MX_USART2_UART_Init>
  MX_TIM14_Init();
 80007c0:	f000 f88a 	bl	80008d8 <MX_TIM14_Init>
  /* USER CODE BEGIN 2 */
  LL_TIM_EnableCounter(TIM14);
 80007c4:	4b18      	ldr	r3, [pc, #96]	; (8000828 <main+0x80>)
 80007c6:	0018      	movs	r0, r3
 80007c8:	f7ff fdae 	bl	8000328 <LL_TIM_EnableCounter>
  LL_TIM_EnableIT_UPDATE(TIM14);
 80007cc:	4b16      	ldr	r3, [pc, #88]	; (8000828 <main+0x80>)
 80007ce:	0018      	movs	r0, r3
 80007d0:	f7ff fdc6 	bl	8000360 <LL_TIM_EnableIT_UPDATE>
  LL_USART_EnableIT_RXNE_RXFNE(USART1);
 80007d4:	4b15      	ldr	r3, [pc, #84]	; (800082c <main+0x84>)
 80007d6:	0018      	movs	r0, r3
 80007d8:	f7ff fe78 	bl	80004cc <LL_USART_EnableIT_RXNE_RXFNE>
  LL_USART_EnableIT_RXNE_RXFNE(USART2);
 80007dc:	4b14      	ldr	r3, [pc, #80]	; (8000830 <main+0x88>)
 80007de:	0018      	movs	r0, r3
 80007e0:	f7ff fe74 	bl	80004cc <LL_USART_EnableIT_RXNE_RXFNE>
  flag_band = 0;
 80007e4:	4b13      	ldr	r3, [pc, #76]	; (8000834 <main+0x8c>)
 80007e6:	2200      	movs	r2, #0
 80007e8:	601a      	str	r2, [r3, #0]
  isDataReady=0;
 80007ea:	4b13      	ldr	r3, [pc, #76]	; (8000838 <main+0x90>)
 80007ec:	2200      	movs	r2, #0
 80007ee:	601a      	str	r2, [r3, #0]
  time_last_pcdata=0;
 80007f0:	4b12      	ldr	r3, [pc, #72]	; (800083c <main+0x94>)
 80007f2:	2200      	movs	r2, #0
 80007f4:	601a      	str	r2, [r3, #0]
  /* Infinite loop */
  /* USER CODE BEGIN WHILE */
  while (1)
  {
    /* USER CODE END WHILE */
    if (isDataReady){
 80007f6:	4b10      	ldr	r3, [pc, #64]	; (8000838 <main+0x90>)
 80007f8:	681b      	ldr	r3, [r3, #0]
 80007fa:	2b00      	cmp	r3, #0
 80007fc:	d001      	beq.n	8000802 <main+0x5a>
    	SetOutput();
 80007fe:	f7ff ff4d 	bl	800069c <SetOutput>
    }
    if ((HAL_GetTick() - time_last_pcdata) > 3000){
 8000802:	f000 fdfd 	bl	8001400 <HAL_GetTick>
 8000806:	0002      	movs	r2, r0
 8000808:	4b0c      	ldr	r3, [pc, #48]	; (800083c <main+0x94>)
 800080a:	681b      	ldr	r3, [r3, #0]
 800080c:	1ad3      	subs	r3, r2, r3
 800080e:	4a0c      	ldr	r2, [pc, #48]	; (8000840 <main+0x98>)
 8000810:	4293      	cmp	r3, r2
 8000812:	d9f0      	bls.n	80007f6 <main+0x4e>
    	Send_String_To_TRX("IF;");
 8000814:	4b0b      	ldr	r3, [pc, #44]	; (8000844 <main+0x9c>)
 8000816:	0018      	movs	r0, r3
 8000818:	f7ff fee8 	bl	80005ec <Send_String_To_TRX>
    	LL_mDelay(1000);
 800081c:	23fa      	movs	r3, #250	; 0xfa
 800081e:	009b      	lsls	r3, r3, #2
 8000820:	0018      	movs	r0, r3
 8000822:	f002 f903 	bl	8002a2c <LL_mDelay>
    if (isDataReady){
 8000826:	e7e6      	b.n	80007f6 <main+0x4e>
 8000828:	40002000 	.word	0x40002000
 800082c:	40013800 	.word	0x40013800
 8000830:	40004400 	.word	0x40004400
 8000834:	20000028 	.word	0x20000028
 8000838:	2000002c 	.word	0x2000002c
 800083c:	20000030 	.word	0x20000030
 8000840:	00000bb8 	.word	0x00000bb8
 8000844:	08002ae4 	.word	0x08002ae4

08000848 <SystemClock_Config>:
/**
  * @brief System Clock Configuration
  * @retval None
  */
void SystemClock_Config(void)
{
 8000848:	b590      	push	{r4, r7, lr}
 800084a:	b093      	sub	sp, #76	; 0x4c
 800084c:	af00      	add	r7, sp, #0
  RCC_OscInitTypeDef RCC_OscInitStruct = {0};
 800084e:	2414      	movs	r4, #20
 8000850:	193b      	adds	r3, r7, r4
 8000852:	0018      	movs	r0, r3
 8000854:	2334      	movs	r3, #52	; 0x34
 8000856:	001a      	movs	r2, r3
 8000858:	2100      	movs	r1, #0
 800085a:	f002 f90b 	bl	8002a74 <memset>
  RCC_ClkInitTypeDef RCC_ClkInitStruct = {0};
 800085e:	1d3b      	adds	r3, r7, #4
 8000860:	0018      	movs	r0, r3
 8000862:	2310      	movs	r3, #16
 8000864:	001a      	movs	r2, r3
 8000866:	2100      	movs	r1, #0
 8000868:	f002 f904 	bl	8002a74 <memset>

  /** Configure the main internal regulator output voltage
  */
  HAL_PWREx_ControlVoltageScaling(PWR_REGULATOR_VOLTAGE_SCALE1);
 800086c:	2380      	movs	r3, #128	; 0x80
 800086e:	009b      	lsls	r3, r3, #2
 8000870:	0018      	movs	r0, r3
 8000872:	f000 fe83 	bl	800157c <HAL_PWREx_ControlVoltageScaling>

  /** Initializes the RCC Oscillators according to the specified parameters
  * in the RCC_OscInitTypeDef structure.
  */
  RCC_OscInitStruct.OscillatorType = RCC_OSCILLATORTYPE_HSI;
 8000876:	193b      	adds	r3, r7, r4
 8000878:	2202      	movs	r2, #2
 800087a:	601a      	str	r2, [r3, #0]
  RCC_OscInitStruct.HSIState = RCC_HSI_ON;
 800087c:	193b      	adds	r3, r7, r4
 800087e:	2280      	movs	r2, #128	; 0x80
 8000880:	0052      	lsls	r2, r2, #1
 8000882:	60da      	str	r2, [r3, #12]
  RCC_OscInitStruct.HSIDiv = RCC_HSI_DIV1;
 8000884:	193b      	adds	r3, r7, r4
 8000886:	2200      	movs	r2, #0
 8000888:	611a      	str	r2, [r3, #16]
  RCC_OscInitStruct.HSICalibrationValue = RCC_HSICALIBRATION_DEFAULT;
 800088a:	193b      	adds	r3, r7, r4
 800088c:	2240      	movs	r2, #64	; 0x40
 800088e:	615a      	str	r2, [r3, #20]
  RCC_OscInitStruct.PLL.PLLState = RCC_PLL_NONE;
 8000890:	193b      	adds	r3, r7, r4
 8000892:	2200      	movs	r2, #0
 8000894:	61da      	str	r2, [r3, #28]
  if (HAL_RCC_OscConfig(&RCC_OscInitStruct) != HAL_OK)
 8000896:	193b      	adds	r3, r7, r4
 8000898:	0018      	movs	r0, r3
 800089a:	f000 feaf 	bl	80015fc <HAL_RCC_OscConfig>
 800089e:	1e03      	subs	r3, r0, #0
 80008a0:	d001      	beq.n	80008a6 <SystemClock_Config+0x5e>
  {
    Error_Handler();
 80008a2:	f000 fa99 	bl	8000dd8 <Error_Handler>
  }

  /** Initializes the CPU, AHB and APB buses clocks
  */
  RCC_ClkInitStruct.ClockType = RCC_CLOCKTYPE_HCLK|RCC_CLOCKTYPE_SYSCLK
 80008a6:	1d3b      	adds	r3, r7, #4
 80008a8:	2207      	movs	r2, #7
 80008aa:	601a      	str	r2, [r3, #0]
                              |RCC_CLOCKTYPE_PCLK1;
  RCC_ClkInitStruct.SYSCLKSource = RCC_SYSCLKSOURCE_HSI;
 80008ac:	1d3b      	adds	r3, r7, #4
 80008ae:	2200      	movs	r2, #0
 80008b0:	605a      	str	r2, [r3, #4]
  RCC_ClkInitStruct.AHBCLKDivider = RCC_SYSCLK_DIV1;
 80008b2:	1d3b      	adds	r3, r7, #4
 80008b4:	2200      	movs	r2, #0
 80008b6:	609a      	str	r2, [r3, #8]
  RCC_ClkInitStruct.APB1CLKDivider = RCC_HCLK_DIV1;
 80008b8:	1d3b      	adds	r3, r7, #4
 80008ba:	2200      	movs	r2, #0
 80008bc:	60da      	str	r2, [r3, #12]

  if (HAL_RCC_ClockConfig(&RCC_ClkInitStruct, FLASH_LATENCY_0) != HAL_OK)
 80008be:	1d3b      	adds	r3, r7, #4
 80008c0:	2100      	movs	r1, #0
 80008c2:	0018      	movs	r0, r3
 80008c4:	f001 f9aa 	bl	8001c1c <HAL_RCC_ClockConfig>
 80008c8:	1e03      	subs	r3, r0, #0
 80008ca:	d001      	beq.n	80008d0 <SystemClock_Config+0x88>
  {
    Error_Handler();
 80008cc:	f000 fa84 	bl	8000dd8 <Error_Handler>
  }
}
 80008d0:	46c0      	nop			; (mov r8, r8)
 80008d2:	46bd      	mov	sp, r7
 80008d4:	b013      	add	sp, #76	; 0x4c
 80008d6:	bd90      	pop	{r4, r7, pc}

080008d8 <MX_TIM14_Init>:
  * @brief TIM14 Initialization Function
  * @param None
  * @retval None
  */
static void MX_TIM14_Init(void)
{
 80008d8:	b580      	push	{r7, lr}
 80008da:	b086      	sub	sp, #24
 80008dc:	af00      	add	r7, sp, #0

  /* USER CODE BEGIN TIM14_Init 0 */

  /* USER CODE END TIM14_Init 0 */

  LL_TIM_InitTypeDef TIM_InitStruct = {0};
 80008de:	1d3b      	adds	r3, r7, #4
 80008e0:	0018      	movs	r0, r3
 80008e2:	2314      	movs	r3, #20
 80008e4:	001a      	movs	r2, r3
 80008e6:	2100      	movs	r1, #0
 80008e8:	f002 f8c4 	bl	8002a74 <memset>

  /* Peripheral clock enable */
  LL_APB2_GRP1_EnableClock(LL_APB2_GRP1_PERIPH_TIM14);
 80008ec:	2380      	movs	r3, #128	; 0x80
 80008ee:	021b      	lsls	r3, r3, #8
 80008f0:	0018      	movs	r0, r3
 80008f2:	f7ff fe39 	bl	8000568 <LL_APB2_GRP1_EnableClock>

  /* TIM14 interrupt Init */
  NVIC_SetPriority(TIM14_IRQn, 0);
 80008f6:	2100      	movs	r1, #0
 80008f8:	2013      	movs	r0, #19
 80008fa:	f7ff fca7 	bl	800024c <__NVIC_SetPriority>
  NVIC_EnableIRQ(TIM14_IRQn);
 80008fe:	2013      	movs	r0, #19
 8000900:	f7ff fc8a 	bl	8000218 <__NVIC_EnableIRQ>

  /* USER CODE BEGIN TIM14_Init 1 */

  /* USER CODE END TIM14_Init 1 */
  TIM_InitStruct.Prescaler = 15999;
 8000904:	1d3b      	adds	r3, r7, #4
 8000906:	4a0d      	ldr	r2, [pc, #52]	; (800093c <MX_TIM14_Init+0x64>)
 8000908:	801a      	strh	r2, [r3, #0]
  TIM_InitStruct.CounterMode = LL_TIM_COUNTERMODE_UP;
 800090a:	1d3b      	adds	r3, r7, #4
 800090c:	2200      	movs	r2, #0
 800090e:	605a      	str	r2, [r3, #4]
  TIM_InitStruct.Autoreload = 499;
 8000910:	1d3b      	adds	r3, r7, #4
 8000912:	22f4      	movs	r2, #244	; 0xf4
 8000914:	32ff      	adds	r2, #255	; 0xff
 8000916:	609a      	str	r2, [r3, #8]
  TIM_InitStruct.ClockDivision = LL_TIM_CLOCKDIVISION_DIV1;
 8000918:	1d3b      	adds	r3, r7, #4
 800091a:	2200      	movs	r2, #0
 800091c:	60da      	str	r2, [r3, #12]
  LL_TIM_Init(TIM14, &TIM_InitStruct);
 800091e:	1d3b      	adds	r3, r7, #4
 8000920:	4a07      	ldr	r2, [pc, #28]	; (8000940 <MX_TIM14_Init+0x68>)
 8000922:	0019      	movs	r1, r3
 8000924:	0010      	movs	r0, r2
 8000926:	f001 fefb 	bl	8002720 <LL_TIM_Init>
  LL_TIM_EnableARRPreload(TIM14);
 800092a:	4b05      	ldr	r3, [pc, #20]	; (8000940 <MX_TIM14_Init+0x68>)
 800092c:	0018      	movs	r0, r3
 800092e:	f7ff fd09 	bl	8000344 <LL_TIM_EnableARRPreload>
  /* USER CODE BEGIN TIM14_Init 2 */

  /* USER CODE END TIM14_Init 2 */

}
 8000932:	46c0      	nop			; (mov r8, r8)
 8000934:	46bd      	mov	sp, r7
 8000936:	b006      	add	sp, #24
 8000938:	bd80      	pop	{r7, pc}
 800093a:	46c0      	nop			; (mov r8, r8)
 800093c:	00003e7f 	.word	0x00003e7f
 8000940:	40002000 	.word	0x40002000

08000944 <MX_USART1_UART_Init>:
  * @brief USART1 Initialization Function
  * @param None
  * @retval None
  */
static void MX_USART1_UART_Init(void)
{
 8000944:	b590      	push	{r4, r7, lr}
 8000946:	b095      	sub	sp, #84	; 0x54
 8000948:	af00      	add	r7, sp, #0

  /* USER CODE BEGIN USART1_Init 0 */

  /* USER CODE END USART1_Init 0 */

  LL_USART_InitTypeDef USART_InitStruct = {0};
 800094a:	2330      	movs	r3, #48	; 0x30
 800094c:	18fb      	adds	r3, r7, r3
 800094e:	0018      	movs	r0, r3
 8000950:	2320      	movs	r3, #32
 8000952:	001a      	movs	r2, r3
 8000954:	2100      	movs	r1, #0
 8000956:	f002 f88d 	bl	8002a74 <memset>

  LL_GPIO_InitTypeDef GPIO_InitStruct = {0};
 800095a:	2318      	movs	r3, #24
 800095c:	18fb      	adds	r3, r7, r3
 800095e:	0018      	movs	r0, r3
 8000960:	2318      	movs	r3, #24
 8000962:	001a      	movs	r2, r3
 8000964:	2100      	movs	r1, #0
 8000966:	f002 f885 	bl	8002a74 <memset>
  RCC_PeriphCLKInitTypeDef PeriphClkInit = {0};
 800096a:	003b      	movs	r3, r7
 800096c:	0018      	movs	r0, r3
 800096e:	2318      	movs	r3, #24
 8000970:	001a      	movs	r2, r3
 8000972:	2100      	movs	r1, #0
 8000974:	f002 f87e 	bl	8002a74 <memset>

  /** Initializes the peripherals clocks
  */
  PeriphClkInit.PeriphClockSelection = RCC_PERIPHCLK_USART1;
 8000978:	003b      	movs	r3, r7
 800097a:	2201      	movs	r2, #1
 800097c:	601a      	str	r2, [r3, #0]
  PeriphClkInit.Usart1ClockSelection = RCC_USART1CLKSOURCE_PCLK1;
 800097e:	003b      	movs	r3, r7
 8000980:	2200      	movs	r2, #0
 8000982:	605a      	str	r2, [r3, #4]
  if (HAL_RCCEx_PeriphCLKConfig(&PeriphClkInit) != HAL_OK)
 8000984:	003b      	movs	r3, r7
 8000986:	0018      	movs	r0, r3
 8000988:	f001 fad2 	bl	8001f30 <HAL_RCCEx_PeriphCLKConfig>
 800098c:	1e03      	subs	r3, r0, #0
 800098e:	d001      	beq.n	8000994 <MX_USART1_UART_Init+0x50>
  {
    Error_Handler();
 8000990:	f000 fa22 	bl	8000dd8 <Error_Handler>
  }

  /* Peripheral clock enable */
  LL_APB2_GRP1_EnableClock(LL_APB2_GRP1_PERIPH_USART1);
 8000994:	2380      	movs	r3, #128	; 0x80
 8000996:	01db      	lsls	r3, r3, #7
 8000998:	0018      	movs	r0, r3
 800099a:	f7ff fde5 	bl	8000568 <LL_APB2_GRP1_EnableClock>

  LL_IOP_GRP1_EnableClock(LL_IOP_GRP1_PERIPH_GPIOB);
 800099e:	2002      	movs	r0, #2
 80009a0:	f7ff fdf8 	bl	8000594 <LL_IOP_GRP1_EnableClock>
  /**USART1 GPIO Configuration
  PB7   ------> USART1_RX
  PB6   ------> USART1_TX
  */
  GPIO_InitStruct.Pin = LL_GPIO_PIN_7;
 80009a4:	2418      	movs	r4, #24
 80009a6:	193b      	adds	r3, r7, r4
 80009a8:	2280      	movs	r2, #128	; 0x80
 80009aa:	601a      	str	r2, [r3, #0]
  GPIO_InitStruct.Mode = LL_GPIO_MODE_ALTERNATE;
 80009ac:	193b      	adds	r3, r7, r4
 80009ae:	2202      	movs	r2, #2
 80009b0:	605a      	str	r2, [r3, #4]
  GPIO_InitStruct.Speed = LL_GPIO_SPEED_FREQ_LOW;
 80009b2:	193b      	adds	r3, r7, r4
 80009b4:	2200      	movs	r2, #0
 80009b6:	609a      	str	r2, [r3, #8]
  GPIO_InitStruct.OutputType = LL_GPIO_OUTPUT_PUSHPULL;
 80009b8:	193b      	adds	r3, r7, r4
 80009ba:	2200      	movs	r2, #0
 80009bc:	60da      	str	r2, [r3, #12]
  GPIO_InitStruct.Pull = LL_GPIO_PULL_NO;
 80009be:	193b      	adds	r3, r7, r4
 80009c0:	2200      	movs	r2, #0
 80009c2:	611a      	str	r2, [r3, #16]
  GPIO_InitStruct.Alternate = LL_GPIO_AF_0;
 80009c4:	193b      	adds	r3, r7, r4
 80009c6:	2200      	movs	r2, #0
 80009c8:	615a      	str	r2, [r3, #20]
  LL_GPIO_Init(GPIOB, &GPIO_InitStruct);
 80009ca:	193b      	adds	r3, r7, r4
 80009cc:	4a36      	ldr	r2, [pc, #216]	; (8000aa8 <MX_USART1_UART_Init+0x164>)
 80009ce:	0019      	movs	r1, r3
 80009d0:	0010      	movs	r0, r2
 80009d2:	f001 fc8c 	bl	80022ee <LL_GPIO_Init>

  GPIO_InitStruct.Pin = LL_GPIO_PIN_6;
 80009d6:	0021      	movs	r1, r4
 80009d8:	187b      	adds	r3, r7, r1
 80009da:	2240      	movs	r2, #64	; 0x40
 80009dc:	601a      	str	r2, [r3, #0]
  GPIO_InitStruct.Mode = LL_GPIO_MODE_ALTERNATE;
 80009de:	187b      	adds	r3, r7, r1
 80009e0:	2202      	movs	r2, #2
 80009e2:	605a      	str	r2, [r3, #4]
  GPIO_InitStruct.Speed = LL_GPIO_SPEED_FREQ_LOW;
 80009e4:	187b      	adds	r3, r7, r1
 80009e6:	2200      	movs	r2, #0
 80009e8:	609a      	str	r2, [r3, #8]
  GPIO_InitStruct.OutputType = LL_GPIO_OUTPUT_PUSHPULL;
 80009ea:	187b      	adds	r3, r7, r1
 80009ec:	2200      	movs	r2, #0
 80009ee:	60da      	str	r2, [r3, #12]
  GPIO_InitStruct.Pull = LL_GPIO_PULL_NO;
 80009f0:	187b      	adds	r3, r7, r1
 80009f2:	2200      	movs	r2, #0
 80009f4:	611a      	str	r2, [r3, #16]
  GPIO_InitStruct.Alternate = LL_GPIO_AF_0;
 80009f6:	187b      	adds	r3, r7, r1
 80009f8:	2200      	movs	r2, #0
 80009fa:	615a      	str	r2, [r3, #20]
  LL_GPIO_Init(GPIOB, &GPIO_InitStruct);
 80009fc:	187b      	adds	r3, r7, r1
 80009fe:	4a2a      	ldr	r2, [pc, #168]	; (8000aa8 <MX_USART1_UART_Init+0x164>)
 8000a00:	0019      	movs	r1, r3
 8000a02:	0010      	movs	r0, r2
 8000a04:	f001 fc73 	bl	80022ee <LL_GPIO_Init>

  /* USART1 interrupt Init */
  NVIC_SetPriority(USART1_IRQn, 0);
 8000a08:	2100      	movs	r1, #0
 8000a0a:	201b      	movs	r0, #27
 8000a0c:	f7ff fc1e 	bl	800024c <__NVIC_SetPriority>
  NVIC_EnableIRQ(USART1_IRQn);
 8000a10:	201b      	movs	r0, #27
 8000a12:	f7ff fc01 	bl	8000218 <__NVIC_EnableIRQ>

  /* USER CODE BEGIN USART1_Init 1 */

  /* USER CODE END USART1_Init 1 */
  USART_InitStruct.PrescalerValue = LL_USART_PRESCALER_DIV1;
 8000a16:	2130      	movs	r1, #48	; 0x30
 8000a18:	187b      	adds	r3, r7, r1
 8000a1a:	2200      	movs	r2, #0
 8000a1c:	601a      	str	r2, [r3, #0]
  USART_InitStruct.BaudRate = 9600;
 8000a1e:	187b      	adds	r3, r7, r1
 8000a20:	2296      	movs	r2, #150	; 0x96
 8000a22:	0192      	lsls	r2, r2, #6
 8000a24:	605a      	str	r2, [r3, #4]
  USART_InitStruct.DataWidth = LL_USART_DATAWIDTH_8B;
 8000a26:	187b      	adds	r3, r7, r1
 8000a28:	2200      	movs	r2, #0
 8000a2a:	609a      	str	r2, [r3, #8]
  USART_InitStruct.StopBits = LL_USART_STOPBITS_1;
 8000a2c:	187b      	adds	r3, r7, r1
 8000a2e:	2200      	movs	r2, #0
 8000a30:	60da      	str	r2, [r3, #12]
  USART_InitStruct.Parity = LL_USART_PARITY_NONE;
 8000a32:	187b      	adds	r3, r7, r1
 8000a34:	2200      	movs	r2, #0
 8000a36:	611a      	str	r2, [r3, #16]
  USART_InitStruct.TransferDirection = LL_USART_DIRECTION_TX_RX;
 8000a38:	187b      	adds	r3, r7, r1
 8000a3a:	220c      	movs	r2, #12
 8000a3c:	615a      	str	r2, [r3, #20]
  USART_InitStruct.HardwareFlowControl = LL_USART_HWCONTROL_NONE;
 8000a3e:	187b      	adds	r3, r7, r1
 8000a40:	2200      	movs	r2, #0
 8000a42:	619a      	str	r2, [r3, #24]
  USART_InitStruct.OverSampling = LL_USART_OVERSAMPLING_16;
 8000a44:	187b      	adds	r3, r7, r1
 8000a46:	2200      	movs	r2, #0
 8000a48:	61da      	str	r2, [r3, #28]
  LL_USART_Init(USART1, &USART_InitStruct);
 8000a4a:	187b      	adds	r3, r7, r1
 8000a4c:	4a17      	ldr	r2, [pc, #92]	; (8000aac <MX_USART1_UART_Init+0x168>)
 8000a4e:	0019      	movs	r1, r3
 8000a50:	0010      	movs	r0, r2
 8000a52:	f001 ff79 	bl	8002948 <LL_USART_Init>
  LL_USART_SetTXFIFOThreshold(USART1, LL_USART_FIFOTHRESHOLD_1_8);
 8000a56:	4b15      	ldr	r3, [pc, #84]	; (8000aac <MX_USART1_UART_Init+0x168>)
 8000a58:	2100      	movs	r1, #0
 8000a5a:	0018      	movs	r0, r3
 8000a5c:	f7ff fcac 	bl	80003b8 <LL_USART_SetTXFIFOThreshold>
  LL_USART_SetRXFIFOThreshold(USART1, LL_USART_FIFOTHRESHOLD_1_8);
 8000a60:	4b12      	ldr	r3, [pc, #72]	; (8000aac <MX_USART1_UART_Init+0x168>)
 8000a62:	2100      	movs	r1, #0
 8000a64:	0018      	movs	r0, r3
 8000a66:	f7ff fccb 	bl	8000400 <LL_USART_SetRXFIFOThreshold>
  LL_USART_DisableFIFO(USART1);
 8000a6a:	4b10      	ldr	r3, [pc, #64]	; (8000aac <MX_USART1_UART_Init+0x168>)
 8000a6c:	0018      	movs	r0, r3
 8000a6e:	f7ff fc93 	bl	8000398 <LL_USART_DisableFIFO>
  LL_USART_ConfigAsyncMode(USART1);
 8000a72:	4b0e      	ldr	r3, [pc, #56]	; (8000aac <MX_USART1_UART_Init+0x168>)
 8000a74:	0018      	movs	r0, r3
 8000a76:	f7ff fce9 	bl	800044c <LL_USART_ConfigAsyncMode>

  /* USER CODE BEGIN WKUPType USART1 */

  /* USER CODE END WKUPType USART1 */

  LL_USART_Enable(USART1);
 8000a7a:	4b0c      	ldr	r3, [pc, #48]	; (8000aac <MX_USART1_UART_Init+0x168>)
 8000a7c:	0018      	movs	r0, r3
 8000a7e:	f7ff fc7d 	bl	800037c <LL_USART_Enable>

  /* Polling USART1 initialisation */
  while((!(LL_USART_IsActiveFlag_TEACK(USART1))) || (!(LL_USART_IsActiveFlag_REACK(USART1))))
 8000a82:	46c0      	nop			; (mov r8, r8)
 8000a84:	4b09      	ldr	r3, [pc, #36]	; (8000aac <MX_USART1_UART_Init+0x168>)
 8000a86:	0018      	movs	r0, r3
 8000a88:	f7ff fcf8 	bl	800047c <LL_USART_IsActiveFlag_TEACK>
 8000a8c:	1e03      	subs	r3, r0, #0
 8000a8e:	d0f9      	beq.n	8000a84 <MX_USART1_UART_Init+0x140>
 8000a90:	4b06      	ldr	r3, [pc, #24]	; (8000aac <MX_USART1_UART_Init+0x168>)
 8000a92:	0018      	movs	r0, r3
 8000a94:	f7ff fd06 	bl	80004a4 <LL_USART_IsActiveFlag_REACK>
 8000a98:	1e03      	subs	r3, r0, #0
 8000a9a:	d0f3      	beq.n	8000a84 <MX_USART1_UART_Init+0x140>
  }
  /* USER CODE BEGIN USART1_Init 2 */

  /* USER CODE END USART1_Init 2 */

}
 8000a9c:	46c0      	nop			; (mov r8, r8)
 8000a9e:	46c0      	nop			; (mov r8, r8)
 8000aa0:	46bd      	mov	sp, r7
 8000aa2:	b015      	add	sp, #84	; 0x54
 8000aa4:	bd90      	pop	{r4, r7, pc}
 8000aa6:	46c0      	nop			; (mov r8, r8)
 8000aa8:	50000400 	.word	0x50000400
 8000aac:	40013800 	.word	0x40013800

08000ab0 <MX_USART2_UART_Init>:
  * @brief USART2 Initialization Function
  * @param None
  * @retval None
  */
static void MX_USART2_UART_Init(void)
{
 8000ab0:	b590      	push	{r4, r7, lr}
 8000ab2:	b08f      	sub	sp, #60	; 0x3c
 8000ab4:	af00      	add	r7, sp, #0

  /* USER CODE BEGIN USART2_Init 0 */

  /* USER CODE END USART2_Init 0 */

  LL_USART_InitTypeDef USART_InitStruct = {0};
 8000ab6:	2418      	movs	r4, #24
 8000ab8:	193b      	adds	r3, r7, r4
 8000aba:	0018      	movs	r0, r3
 8000abc:	2320      	movs	r3, #32
 8000abe:	001a      	movs	r2, r3
 8000ac0:	2100      	movs	r1, #0
 8000ac2:	f001 ffd7 	bl	8002a74 <memset>

  LL_GPIO_InitTypeDef GPIO_InitStruct = {0};
 8000ac6:	003b      	movs	r3, r7
 8000ac8:	0018      	movs	r0, r3
 8000aca:	2318      	movs	r3, #24
 8000acc:	001a      	movs	r2, r3
 8000ace:	2100      	movs	r1, #0
 8000ad0:	f001 ffd0 	bl	8002a74 <memset>

  /* Peripheral clock enable */
  LL_APB1_GRP1_EnableClock(LL_APB1_GRP1_PERIPH_USART2);
 8000ad4:	2380      	movs	r3, #128	; 0x80
 8000ad6:	029b      	lsls	r3, r3, #10
 8000ad8:	0018      	movs	r0, r3
 8000ada:	f7ff fd2f 	bl	800053c <LL_APB1_GRP1_EnableClock>

  LL_IOP_GRP1_EnableClock(LL_IOP_GRP1_PERIPH_GPIOA);
 8000ade:	2001      	movs	r0, #1
 8000ae0:	f7ff fd58 	bl	8000594 <LL_IOP_GRP1_EnableClock>
  /**USART2 GPIO Configuration
  PA2   ------> USART2_TX
  PA3   ------> USART2_RX
  */
  GPIO_InitStruct.Pin = LL_GPIO_PIN_2;
 8000ae4:	003b      	movs	r3, r7
 8000ae6:	2204      	movs	r2, #4
 8000ae8:	601a      	str	r2, [r3, #0]
  GPIO_InitStruct.Mode = LL_GPIO_MODE_ALTERNATE;
 8000aea:	003b      	movs	r3, r7
 8000aec:	2202      	movs	r2, #2
 8000aee:	605a      	str	r2, [r3, #4]
  GPIO_InitStruct.Speed = LL_GPIO_SPEED_FREQ_LOW;
 8000af0:	003b      	movs	r3, r7
 8000af2:	2200      	movs	r2, #0
 8000af4:	609a      	str	r2, [r3, #8]
  GPIO_InitStruct.OutputType = LL_GPIO_OUTPUT_PUSHPULL;
 8000af6:	003b      	movs	r3, r7
 8000af8:	2200      	movs	r2, #0
 8000afa:	60da      	str	r2, [r3, #12]
  GPIO_InitStruct.Pull = LL_GPIO_PULL_NO;
 8000afc:	003b      	movs	r3, r7
 8000afe:	2200      	movs	r2, #0
 8000b00:	611a      	str	r2, [r3, #16]
  GPIO_InitStruct.Alternate = LL_GPIO_AF_1;
 8000b02:	003b      	movs	r3, r7
 8000b04:	2201      	movs	r2, #1
 8000b06:	615a      	str	r2, [r3, #20]
  LL_GPIO_Init(GPIOA, &GPIO_InitStruct);
 8000b08:	003a      	movs	r2, r7
 8000b0a:	23a0      	movs	r3, #160	; 0xa0
 8000b0c:	05db      	lsls	r3, r3, #23
 8000b0e:	0011      	movs	r1, r2
 8000b10:	0018      	movs	r0, r3
 8000b12:	f001 fbec 	bl	80022ee <LL_GPIO_Init>

  GPIO_InitStruct.Pin = LL_GPIO_PIN_3;
 8000b16:	003b      	movs	r3, r7
 8000b18:	2208      	movs	r2, #8
 8000b1a:	601a      	str	r2, [r3, #0]
  GPIO_InitStruct.Mode = LL_GPIO_MODE_ALTERNATE;
 8000b1c:	003b      	movs	r3, r7
 8000b1e:	2202      	movs	r2, #2
 8000b20:	605a      	str	r2, [r3, #4]
  GPIO_InitStruct.Speed = LL_GPIO_SPEED_FREQ_LOW;
 8000b22:	003b      	movs	r3, r7
 8000b24:	2200      	movs	r2, #0
 8000b26:	609a      	str	r2, [r3, #8]
  GPIO_InitStruct.OutputType = LL_GPIO_OUTPUT_PUSHPULL;
 8000b28:	003b      	movs	r3, r7
 8000b2a:	2200      	movs	r2, #0
 8000b2c:	60da      	str	r2, [r3, #12]
  GPIO_InitStruct.Pull = LL_GPIO_PULL_NO;
 8000b2e:	003b      	movs	r3, r7
 8000b30:	2200      	movs	r2, #0
 8000b32:	611a      	str	r2, [r3, #16]
  GPIO_InitStruct.Alternate = LL_GPIO_AF_1;
 8000b34:	003b      	movs	r3, r7
 8000b36:	2201      	movs	r2, #1
 8000b38:	615a      	str	r2, [r3, #20]
  LL_GPIO_Init(GPIOA, &GPIO_InitStruct);
 8000b3a:	003a      	movs	r2, r7
 8000b3c:	23a0      	movs	r3, #160	; 0xa0
 8000b3e:	05db      	lsls	r3, r3, #23
 8000b40:	0011      	movs	r1, r2
 8000b42:	0018      	movs	r0, r3
 8000b44:	f001 fbd3 	bl	80022ee <LL_GPIO_Init>

  /* USART2 interrupt Init */
  NVIC_SetPriority(USART2_IRQn, 0);
 8000b48:	2100      	movs	r1, #0
 8000b4a:	201c      	movs	r0, #28
 8000b4c:	f7ff fb7e 	bl	800024c <__NVIC_SetPriority>
  NVIC_EnableIRQ(USART2_IRQn);
 8000b50:	201c      	movs	r0, #28
 8000b52:	f7ff fb61 	bl	8000218 <__NVIC_EnableIRQ>

  /* USER CODE BEGIN USART2_Init 1 */

  /* USER CODE END USART2_Init 1 */
  USART_InitStruct.PrescalerValue = LL_USART_PRESCALER_DIV1;
 8000b56:	193b      	adds	r3, r7, r4
 8000b58:	2200      	movs	r2, #0
 8000b5a:	601a      	str	r2, [r3, #0]
  USART_InitStruct.BaudRate = 9600;
 8000b5c:	193b      	adds	r3, r7, r4
 8000b5e:	2296      	movs	r2, #150	; 0x96
 8000b60:	0192      	lsls	r2, r2, #6
 8000b62:	605a      	str	r2, [r3, #4]
  USART_InitStruct.DataWidth = LL_USART_DATAWIDTH_8B;
 8000b64:	0021      	movs	r1, r4
 8000b66:	187b      	adds	r3, r7, r1
 8000b68:	2200      	movs	r2, #0
 8000b6a:	609a      	str	r2, [r3, #8]
  USART_InitStruct.StopBits = LL_USART_STOPBITS_1;
 8000b6c:	187b      	adds	r3, r7, r1
 8000b6e:	2200      	movs	r2, #0
 8000b70:	60da      	str	r2, [r3, #12]
  USART_InitStruct.Parity = LL_USART_PARITY_NONE;
 8000b72:	187b      	adds	r3, r7, r1
 8000b74:	2200      	movs	r2, #0
 8000b76:	611a      	str	r2, [r3, #16]
  USART_InitStruct.TransferDirection = LL_USART_DIRECTION_TX_RX;
 8000b78:	187b      	adds	r3, r7, r1
 8000b7a:	220c      	movs	r2, #12
 8000b7c:	615a      	str	r2, [r3, #20]
  USART_InitStruct.HardwareFlowControl = LL_USART_HWCONTROL_NONE;
 8000b7e:	187b      	adds	r3, r7, r1
 8000b80:	2200      	movs	r2, #0
 8000b82:	619a      	str	r2, [r3, #24]
  USART_InitStruct.OverSampling = LL_USART_OVERSAMPLING_16;
 8000b84:	187b      	adds	r3, r7, r1
 8000b86:	2200      	movs	r2, #0
 8000b88:	61da      	str	r2, [r3, #28]
  LL_USART_Init(USART2, &USART_InitStruct);
 8000b8a:	187b      	adds	r3, r7, r1
 8000b8c:	4a0f      	ldr	r2, [pc, #60]	; (8000bcc <MX_USART2_UART_Init+0x11c>)
 8000b8e:	0019      	movs	r1, r3
 8000b90:	0010      	movs	r0, r2
 8000b92:	f001 fed9 	bl	8002948 <LL_USART_Init>
  LL_USART_ConfigAsyncMode(USART2);
 8000b96:	4b0d      	ldr	r3, [pc, #52]	; (8000bcc <MX_USART2_UART_Init+0x11c>)
 8000b98:	0018      	movs	r0, r3
 8000b9a:	f7ff fc57 	bl	800044c <LL_USART_ConfigAsyncMode>

  /* USER CODE BEGIN WKUPType USART2 */

  /* USER CODE END WKUPType USART2 */

  LL_USART_Enable(USART2);
 8000b9e:	4b0b      	ldr	r3, [pc, #44]	; (8000bcc <MX_USART2_UART_Init+0x11c>)
 8000ba0:	0018      	movs	r0, r3
 8000ba2:	f7ff fbeb 	bl	800037c <LL_USART_Enable>

  /* Polling USART2 initialisation */
  while((!(LL_USART_IsActiveFlag_TEACK(USART2))) || (!(LL_USART_IsActiveFlag_REACK(USART2))))
 8000ba6:	46c0      	nop			; (mov r8, r8)
 8000ba8:	4b08      	ldr	r3, [pc, #32]	; (8000bcc <MX_USART2_UART_Init+0x11c>)
 8000baa:	0018      	movs	r0, r3
 8000bac:	f7ff fc66 	bl	800047c <LL_USART_IsActiveFlag_TEACK>
 8000bb0:	1e03      	subs	r3, r0, #0
 8000bb2:	d0f9      	beq.n	8000ba8 <MX_USART2_UART_Init+0xf8>
 8000bb4:	4b05      	ldr	r3, [pc, #20]	; (8000bcc <MX_USART2_UART_Init+0x11c>)
 8000bb6:	0018      	movs	r0, r3
 8000bb8:	f7ff fc74 	bl	80004a4 <LL_USART_IsActiveFlag_REACK>
 8000bbc:	1e03      	subs	r3, r0, #0
 8000bbe:	d0f3      	beq.n	8000ba8 <MX_USART2_UART_Init+0xf8>
  }
  /* USER CODE BEGIN USART2_Init 2 */

  /* USER CODE END USART2_Init 2 */

}
 8000bc0:	46c0      	nop			; (mov r8, r8)
 8000bc2:	46c0      	nop			; (mov r8, r8)
 8000bc4:	46bd      	mov	sp, r7
 8000bc6:	b00f      	add	sp, #60	; 0x3c
 8000bc8:	bd90      	pop	{r4, r7, pc}
 8000bca:	46c0      	nop			; (mov r8, r8)
 8000bcc:	40004400 	.word	0x40004400

08000bd0 <MX_GPIO_Init>:
  * @brief GPIO Initialization Function
  * @param None
  * @retval None
  */
static void MX_GPIO_Init(void)
{
 8000bd0:	b580      	push	{r7, lr}
 8000bd2:	b086      	sub	sp, #24
 8000bd4:	af00      	add	r7, sp, #0
  LL_GPIO_InitTypeDef GPIO_InitStruct = {0};
 8000bd6:	003b      	movs	r3, r7
 8000bd8:	0018      	movs	r0, r3
 8000bda:	2318      	movs	r3, #24
 8000bdc:	001a      	movs	r2, r3
 8000bde:	2100      	movs	r1, #0
 8000be0:	f001 ff48 	bl	8002a74 <memset>
/* USER CODE BEGIN MX_GPIO_Init_1 */
/* USER CODE END MX_GPIO_Init_1 */

  /* GPIO Ports Clock Enable */
  LL_IOP_GRP1_EnableClock(LL_IOP_GRP1_PERIPH_GPIOB);
 8000be4:	2002      	movs	r0, #2
 8000be6:	f7ff fcd5 	bl	8000594 <LL_IOP_GRP1_EnableClock>
  LL_IOP_GRP1_EnableClock(LL_IOP_GRP1_PERIPH_GPIOC);
 8000bea:	2004      	movs	r0, #4
 8000bec:	f7ff fcd2 	bl	8000594 <LL_IOP_GRP1_EnableClock>
  LL_IOP_GRP1_EnableClock(LL_IOP_GRP1_PERIPH_GPIOA);
 8000bf0:	2001      	movs	r0, #1
 8000bf2:	f7ff fccf 	bl	8000594 <LL_IOP_GRP1_EnableClock>

  /**/
  LL_GPIO_ResetOutputPin(LED_GPIO_Port, LED_Pin);
 8000bf6:	2380      	movs	r3, #128	; 0x80
 8000bf8:	021b      	lsls	r3, r3, #8
 8000bfa:	4a76      	ldr	r2, [pc, #472]	; (8000dd4 <MX_GPIO_Init+0x204>)
 8000bfc:	0019      	movs	r1, r3
 8000bfe:	0010      	movs	r0, r2
 8000c00:	f7ff fc8f 	bl	8000522 <LL_GPIO_ResetOutputPin>

  /**/
  LL_GPIO_ResetOutputPin(OUT_160_GPIO_Port, OUT_160_Pin);
 8000c04:	23a0      	movs	r3, #160	; 0xa0
 8000c06:	05db      	lsls	r3, r3, #23
 8000c08:	2110      	movs	r1, #16
 8000c0a:	0018      	movs	r0, r3
 8000c0c:	f7ff fc89 	bl	8000522 <LL_GPIO_ResetOutputPin>

  /**/
  LL_GPIO_ResetOutputPin(OUT_80_GPIO_Port, OUT_80_Pin);
 8000c10:	23a0      	movs	r3, #160	; 0xa0
 8000c12:	05db      	lsls	r3, r3, #23
 8000c14:	2120      	movs	r1, #32
 8000c16:	0018      	movs	r0, r3
 8000c18:	f7ff fc83 	bl	8000522 <LL_GPIO_ResetOutputPin>

  /**/
  LL_GPIO_ResetOutputPin(OUT_40_GPIO_Port, OUT_40_Pin);
 8000c1c:	23a0      	movs	r3, #160	; 0xa0
 8000c1e:	05db      	lsls	r3, r3, #23
 8000c20:	2140      	movs	r1, #64	; 0x40
 8000c22:	0018      	movs	r0, r3
 8000c24:	f7ff fc7d 	bl	8000522 <LL_GPIO_ResetOutputPin>

  /**/
  LL_GPIO_ResetOutputPin(OUT_30_20_GPIO_Port, OUT_30_20_Pin);
 8000c28:	23a0      	movs	r3, #160	; 0xa0
 8000c2a:	05db      	lsls	r3, r3, #23
 8000c2c:	2180      	movs	r1, #128	; 0x80
 8000c2e:	0018      	movs	r0, r3
 8000c30:	f7ff fc77 	bl	8000522 <LL_GPIO_ResetOutputPin>

  /**/
  LL_GPIO_ResetOutputPin(OUT_17_15_GPIO_Port, OUT_17_15_Pin);
 8000c34:	2380      	movs	r3, #128	; 0x80
 8000c36:	005a      	lsls	r2, r3, #1
 8000c38:	23a0      	movs	r3, #160	; 0xa0
 8000c3a:	05db      	lsls	r3, r3, #23
 8000c3c:	0011      	movs	r1, r2
 8000c3e:	0018      	movs	r0, r3
 8000c40:	f7ff fc6f 	bl	8000522 <LL_GPIO_ResetOutputPin>

  /**/
  LL_GPIO_ResetOutputPin(OUT_12_10_GPIO_Port, OUT_12_10_Pin);
 8000c44:	2380      	movs	r3, #128	; 0x80
 8000c46:	011a      	lsls	r2, r3, #4
 8000c48:	23a0      	movs	r3, #160	; 0xa0
 8000c4a:	05db      	lsls	r3, r3, #23
 8000c4c:	0011      	movs	r1, r2
 8000c4e:	0018      	movs	r0, r3
 8000c50:	f7ff fc67 	bl	8000522 <LL_GPIO_ResetOutputPin>

  /**/
  LL_GPIO_ResetOutputPin(OUT_6_GPIO_Port, OUT_6_Pin);
 8000c54:	2380      	movs	r3, #128	; 0x80
 8000c56:	015a      	lsls	r2, r3, #5
 8000c58:	23a0      	movs	r3, #160	; 0xa0
 8000c5a:	05db      	lsls	r3, r3, #23
 8000c5c:	0011      	movs	r1, r2
 8000c5e:	0018      	movs	r0, r3
 8000c60:	f7ff fc5f 	bl	8000522 <LL_GPIO_ResetOutputPin>

  /**/
  GPIO_InitStruct.Pin = LED_Pin;
 8000c64:	003b      	movs	r3, r7
 8000c66:	2280      	movs	r2, #128	; 0x80
 8000c68:	0212      	lsls	r2, r2, #8
 8000c6a:	601a      	str	r2, [r3, #0]
  GPIO_InitStruct.Mode = LL_GPIO_MODE_OUTPUT;
 8000c6c:	003b      	movs	r3, r7
 8000c6e:	2201      	movs	r2, #1
 8000c70:	605a      	str	r2, [r3, #4]
  GPIO_InitStruct.Speed = LL_GPIO_SPEED_FREQ_LOW;
 8000c72:	003b      	movs	r3, r7
 8000c74:	2200      	movs	r2, #0
 8000c76:	609a      	str	r2, [r3, #8]
  GPIO_InitStruct.OutputType = LL_GPIO_OUTPUT_PUSHPULL;
 8000c78:	003b      	movs	r3, r7
 8000c7a:	2200      	movs	r2, #0
 8000c7c:	60da      	str	r2, [r3, #12]
  GPIO_InitStruct.Pull = LL_GPIO_PULL_NO;
 8000c7e:	003b      	movs	r3, r7
 8000c80:	2200      	movs	r2, #0
 8000c82:	611a      	str	r2, [r3, #16]
  LL_GPIO_Init(LED_GPIO_Port, &GPIO_InitStruct);
 8000c84:	003b      	movs	r3, r7
 8000c86:	4a53      	ldr	r2, [pc, #332]	; (8000dd4 <MX_GPIO_Init+0x204>)
 8000c88:	0019      	movs	r1, r3
 8000c8a:	0010      	movs	r0, r2
 8000c8c:	f001 fb2f 	bl	80022ee <LL_GPIO_Init>

  /**/
  GPIO_InitStruct.Pin = OUT_160_Pin;
 8000c90:	003b      	movs	r3, r7
 8000c92:	2210      	movs	r2, #16
 8000c94:	601a      	str	r2, [r3, #0]
  GPIO_InitStruct.Mode = LL_GPIO_MODE_OUTPUT;
 8000c96:	003b      	movs	r3, r7
 8000c98:	2201      	movs	r2, #1
 8000c9a:	605a      	str	r2, [r3, #4]
  GPIO_InitStruct.Speed = LL_GPIO_SPEED_FREQ_LOW;
 8000c9c:	003b      	movs	r3, r7
 8000c9e:	2200      	movs	r2, #0
 8000ca0:	609a      	str	r2, [r3, #8]
  GPIO_InitStruct.OutputType = LL_GPIO_OUTPUT_PUSHPULL;
 8000ca2:	003b      	movs	r3, r7
 8000ca4:	2200      	movs	r2, #0
 8000ca6:	60da      	str	r2, [r3, #12]
  GPIO_InitStruct.Pull = LL_GPIO_PULL_NO;
 8000ca8:	003b      	movs	r3, r7
 8000caa:	2200      	movs	r2, #0
 8000cac:	611a      	str	r2, [r3, #16]
  LL_GPIO_Init(OUT_160_GPIO_Port, &GPIO_InitStruct);
 8000cae:	003a      	movs	r2, r7
 8000cb0:	23a0      	movs	r3, #160	; 0xa0
 8000cb2:	05db      	lsls	r3, r3, #23
 8000cb4:	0011      	movs	r1, r2
 8000cb6:	0018      	movs	r0, r3
 8000cb8:	f001 fb19 	bl	80022ee <LL_GPIO_Init>

  /**/
  GPIO_InitStruct.Pin = OUT_80_Pin;
 8000cbc:	003b      	movs	r3, r7
 8000cbe:	2220      	movs	r2, #32
 8000cc0:	601a      	str	r2, [r3, #0]
  GPIO_InitStruct.Mode = LL_GPIO_MODE_OUTPUT;
 8000cc2:	003b      	movs	r3, r7
 8000cc4:	2201      	movs	r2, #1
 8000cc6:	605a      	str	r2, [r3, #4]
  GPIO_InitStruct.Speed = LL_GPIO_SPEED_FREQ_LOW;
 8000cc8:	003b      	movs	r3, r7
 8000cca:	2200      	movs	r2, #0
 8000ccc:	609a      	str	r2, [r3, #8]
  GPIO_InitStruct.OutputType = LL_GPIO_OUTPUT_PUSHPULL;
 8000cce:	003b      	movs	r3, r7
 8000cd0:	2200      	movs	r2, #0
 8000cd2:	60da      	str	r2, [r3, #12]
  GPIO_InitStruct.Pull = LL_GPIO_PULL_NO;
 8000cd4:	003b      	movs	r3, r7
 8000cd6:	2200      	movs	r2, #0
 8000cd8:	611a      	str	r2, [r3, #16]
  LL_GPIO_Init(OUT_80_GPIO_Port, &GPIO_InitStruct);
 8000cda:	003a      	movs	r2, r7
 8000cdc:	23a0      	movs	r3, #160	; 0xa0
 8000cde:	05db      	lsls	r3, r3, #23
 8000ce0:	0011      	movs	r1, r2
 8000ce2:	0018      	movs	r0, r3
 8000ce4:	f001 fb03 	bl	80022ee <LL_GPIO_Init>

  /**/
  GPIO_InitStruct.Pin = OUT_40_Pin;
 8000ce8:	003b      	movs	r3, r7
 8000cea:	2240      	movs	r2, #64	; 0x40
 8000cec:	601a      	str	r2, [r3, #0]
  GPIO_InitStruct.Mode = LL_GPIO_MODE_OUTPUT;
 8000cee:	003b      	movs	r3, r7
 8000cf0:	2201      	movs	r2, #1
 8000cf2:	605a      	str	r2, [r3, #4]
  GPIO_InitStruct.Speed = LL_GPIO_SPEED_FREQ_LOW;
 8000cf4:	003b      	movs	r3, r7
 8000cf6:	2200      	movs	r2, #0
 8000cf8:	609a      	str	r2, [r3, #8]
  GPIO_InitStruct.OutputType = LL_GPIO_OUTPUT_PUSHPULL;
 8000cfa:	003b      	movs	r3, r7
 8000cfc:	2200      	movs	r2, #0
 8000cfe:	60da      	str	r2, [r3, #12]
  GPIO_InitStruct.Pull = LL_GPIO_PULL_NO;
 8000d00:	003b      	movs	r3, r7
 8000d02:	2200      	movs	r2, #0
 8000d04:	611a      	str	r2, [r3, #16]
  LL_GPIO_Init(OUT_40_GPIO_Port, &GPIO_InitStruct);
 8000d06:	003a      	movs	r2, r7
 8000d08:	23a0      	movs	r3, #160	; 0xa0
 8000d0a:	05db      	lsls	r3, r3, #23
 8000d0c:	0011      	movs	r1, r2
 8000d0e:	0018      	movs	r0, r3
 8000d10:	f001 faed 	bl	80022ee <LL_GPIO_Init>

  /**/
  GPIO_InitStruct.Pin = OUT_30_20_Pin;
 8000d14:	003b      	movs	r3, r7
 8000d16:	2280      	movs	r2, #128	; 0x80
 8000d18:	601a      	str	r2, [r3, #0]
  GPIO_InitStruct.Mode = LL_GPIO_MODE_OUTPUT;
 8000d1a:	003b      	movs	r3, r7
 8000d1c:	2201      	movs	r2, #1
 8000d1e:	605a      	str	r2, [r3, #4]
  GPIO_InitStruct.Speed = LL_GPIO_SPEED_FREQ_LOW;
 8000d20:	003b      	movs	r3, r7
 8000d22:	2200      	movs	r2, #0
 8000d24:	609a      	str	r2, [r3, #8]
  GPIO_InitStruct.OutputType = LL_GPIO_OUTPUT_PUSHPULL;
 8000d26:	003b      	movs	r3, r7
 8000d28:	2200      	movs	r2, #0
 8000d2a:	60da      	str	r2, [r3, #12]
  GPIO_InitStruct.Pull = LL_GPIO_PULL_NO;
 8000d2c:	003b      	movs	r3, r7
 8000d2e:	2200      	movs	r2, #0
 8000d30:	611a      	str	r2, [r3, #16]
  LL_GPIO_Init(OUT_30_20_GPIO_Port, &GPIO_InitStruct);
 8000d32:	003a      	movs	r2, r7
 8000d34:	23a0      	movs	r3, #160	; 0xa0
 8000d36:	05db      	lsls	r3, r3, #23
 8000d38:	0011      	movs	r1, r2
 8000d3a:	0018      	movs	r0, r3
 8000d3c:	f001 fad7 	bl	80022ee <LL_GPIO_Init>

  /**/
  GPIO_InitStruct.Pin = OUT_17_15_Pin;
 8000d40:	003b      	movs	r3, r7
 8000d42:	2280      	movs	r2, #128	; 0x80
 8000d44:	0052      	lsls	r2, r2, #1
 8000d46:	601a      	str	r2, [r3, #0]
  GPIO_InitStruct.Mode = LL_GPIO_MODE_OUTPUT;
 8000d48:	003b      	movs	r3, r7
 8000d4a:	2201      	movs	r2, #1
 8000d4c:	605a      	str	r2, [r3, #4]
  GPIO_InitStruct.Speed = LL_GPIO_SPEED_FREQ_LOW;
 8000d4e:	003b      	movs	r3, r7
 8000d50:	2200      	movs	r2, #0
 8000d52:	609a      	str	r2, [r3, #8]
  GPIO_InitStruct.OutputType = LL_GPIO_OUTPUT_PUSHPULL;
 8000d54:	003b      	movs	r3, r7
 8000d56:	2200      	movs	r2, #0
 8000d58:	60da      	str	r2, [r3, #12]
  GPIO_InitStruct.Pull = LL_GPIO_PULL_NO;
 8000d5a:	003b      	movs	r3, r7
 8000d5c:	2200      	movs	r2, #0
 8000d5e:	611a      	str	r2, [r3, #16]
  LL_GPIO_Init(OUT_17_15_GPIO_Port, &GPIO_InitStruct);
 8000d60:	003a      	movs	r2, r7
 8000d62:	23a0      	movs	r3, #160	; 0xa0
 8000d64:	05db      	lsls	r3, r3, #23
 8000d66:	0011      	movs	r1, r2
 8000d68:	0018      	movs	r0, r3
 8000d6a:	f001 fac0 	bl	80022ee <LL_GPIO_Init>

  /**/
  GPIO_InitStruct.Pin = OUT_12_10_Pin;
 8000d6e:	003b      	movs	r3, r7
 8000d70:	2280      	movs	r2, #128	; 0x80
 8000d72:	0112      	lsls	r2, r2, #4
 8000d74:	601a      	str	r2, [r3, #0]
  GPIO_InitStruct.Mode = LL_GPIO_MODE_OUTPUT;
 8000d76:	003b      	movs	r3, r7
 8000d78:	2201      	movs	r2, #1
 8000d7a:	605a      	str	r2, [r3, #4]
  GPIO_InitStruct.Speed = LL_GPIO_SPEED_FREQ_LOW;
 8000d7c:	003b      	movs	r3, r7
 8000d7e:	2200      	movs	r2, #0
 8000d80:	609a      	str	r2, [r3, #8]
  GPIO_InitStruct.OutputType = LL_GPIO_OUTPUT_PUSHPULL;
 8000d82:	003b      	movs	r3, r7
 8000d84:	2200      	movs	r2, #0
 8000d86:	60da      	str	r2, [r3, #12]
  GPIO_InitStruct.Pull = LL_GPIO_PULL_NO;
 8000d88:	003b      	movs	r3, r7
 8000d8a:	2200      	movs	r2, #0
 8000d8c:	611a      	str	r2, [r3, #16]
  LL_GPIO_Init(OUT_12_10_GPIO_Port, &GPIO_InitStruct);
 8000d8e:	003a      	movs	r2, r7
 8000d90:	23a0      	movs	r3, #160	; 0xa0
 8000d92:	05db      	lsls	r3, r3, #23
 8000d94:	0011      	movs	r1, r2
 8000d96:	0018      	movs	r0, r3
 8000d98:	f001 faa9 	bl	80022ee <LL_GPIO_Init>

  /**/
  GPIO_InitStruct.Pin = OUT_6_Pin;
 8000d9c:	003b      	movs	r3, r7
 8000d9e:	2280      	movs	r2, #128	; 0x80
 8000da0:	0152      	lsls	r2, r2, #5
 8000da2:	601a      	str	r2, [r3, #0]
  GPIO_InitStruct.Mode = LL_GPIO_MODE_OUTPUT;
 8000da4:	003b      	movs	r3, r7
 8000da6:	2201      	movs	r2, #1
 8000da8:	605a      	str	r2, [r3, #4]
  GPIO_InitStruct.Speed = LL_GPIO_SPEED_FREQ_LOW;
 8000daa:	003b      	movs	r3, r7
 8000dac:	2200      	movs	r2, #0
 8000dae:	609a      	str	r2, [r3, #8]
  GPIO_InitStruct.OutputType = LL_GPIO_OUTPUT_PUSHPULL;
 8000db0:	003b      	movs	r3, r7
 8000db2:	2200      	movs	r2, #0
 8000db4:	60da      	str	r2, [r3, #12]
  GPIO_InitStruct.Pull = LL_GPIO_PULL_NO;
 8000db6:	003b      	movs	r3, r7
 8000db8:	2200      	movs	r2, #0
 8000dba:	611a      	str	r2, [r3, #16]
  LL_GPIO_Init(OUT_6_GPIO_Port, &GPIO_InitStruct);
 8000dbc:	003a      	movs	r2, r7
 8000dbe:	23a0      	movs	r3, #160	; 0xa0
 8000dc0:	05db      	lsls	r3, r3, #23
 8000dc2:	0011      	movs	r1, r2
 8000dc4:	0018      	movs	r0, r3
 8000dc6:	f001 fa92 	bl	80022ee <LL_GPIO_Init>

/* USER CODE BEGIN MX_GPIO_Init_2 */
/* USER CODE END MX_GPIO_Init_2 */
}
 8000dca:	46c0      	nop			; (mov r8, r8)
 8000dcc:	46bd      	mov	sp, r7
 8000dce:	b006      	add	sp, #24
 8000dd0:	bd80      	pop	{r7, pc}
 8000dd2:	46c0      	nop			; (mov r8, r8)
 8000dd4:	50000800 	.word	0x50000800

08000dd8 <Error_Handler>:
/**
  * @brief  This function is executed in case of error occurrence.
  * @retval None
  */
void Error_Handler(void)
{
 8000dd8:	b580      	push	{r7, lr}
 8000dda:	af00      	add	r7, sp, #0
  __ASM volatile ("cpsid i" : : : "memory");
 8000ddc:	b672      	cpsid	i
}
 8000dde:	46c0      	nop			; (mov r8, r8)
  /* USER CODE BEGIN Error_Handler_Debug */
  /* User can add his own implementation to report the HAL error return state */
  __disable_irq();
  while (1)
 8000de0:	e7fe      	b.n	8000de0 <Error_Handler+0x8>
	...

08000de4 <HAL_MspInit>:
/* USER CODE END 0 */
/**
  * Initializes the Global MSP.
  */
void HAL_MspInit(void)
{
 8000de4:	b580      	push	{r7, lr}
 8000de6:	b082      	sub	sp, #8
 8000de8:	af00      	add	r7, sp, #0
  /* USER CODE BEGIN MspInit 0 */

  /* USER CODE END MspInit 0 */

  __HAL_RCC_SYSCFG_CLK_ENABLE();
 8000dea:	4b0f      	ldr	r3, [pc, #60]	; (8000e28 <HAL_MspInit+0x44>)
 8000dec:	6c1a      	ldr	r2, [r3, #64]	; 0x40
 8000dee:	4b0e      	ldr	r3, [pc, #56]	; (8000e28 <HAL_MspInit+0x44>)
 8000df0:	2101      	movs	r1, #1
 8000df2:	430a      	orrs	r2, r1
 8000df4:	641a      	str	r2, [r3, #64]	; 0x40
 8000df6:	4b0c      	ldr	r3, [pc, #48]	; (8000e28 <HAL_MspInit+0x44>)
 8000df8:	6c1b      	ldr	r3, [r3, #64]	; 0x40
 8000dfa:	2201      	movs	r2, #1
 8000dfc:	4013      	ands	r3, r2
 8000dfe:	607b      	str	r3, [r7, #4]
 8000e00:	687b      	ldr	r3, [r7, #4]
  __HAL_RCC_PWR_CLK_ENABLE();
 8000e02:	4b09      	ldr	r3, [pc, #36]	; (8000e28 <HAL_MspInit+0x44>)
 8000e04:	6bda      	ldr	r2, [r3, #60]	; 0x3c
 8000e06:	4b08      	ldr	r3, [pc, #32]	; (8000e28 <HAL_MspInit+0x44>)
 8000e08:	2180      	movs	r1, #128	; 0x80
 8000e0a:	0549      	lsls	r1, r1, #21
 8000e0c:	430a      	orrs	r2, r1
 8000e0e:	63da      	str	r2, [r3, #60]	; 0x3c
 8000e10:	4b05      	ldr	r3, [pc, #20]	; (8000e28 <HAL_MspInit+0x44>)
 8000e12:	6bda      	ldr	r2, [r3, #60]	; 0x3c
 8000e14:	2380      	movs	r3, #128	; 0x80
 8000e16:	055b      	lsls	r3, r3, #21
 8000e18:	4013      	ands	r3, r2
 8000e1a:	603b      	str	r3, [r7, #0]
 8000e1c:	683b      	ldr	r3, [r7, #0]
  /* System interrupt init*/

  /* USER CODE BEGIN MspInit 1 */

  /* USER CODE END MspInit 1 */
}
 8000e1e:	46c0      	nop			; (mov r8, r8)
 8000e20:	46bd      	mov	sp, r7
 8000e22:	b002      	add	sp, #8
 8000e24:	bd80      	pop	{r7, pc}
 8000e26:	46c0      	nop			; (mov r8, r8)
 8000e28:	40021000 	.word	0x40021000

08000e2c <LL_TIM_ClearFlag_UPDATE>:
{
 8000e2c:	b580      	push	{r7, lr}
 8000e2e:	b082      	sub	sp, #8
 8000e30:	af00      	add	r7, sp, #0
 8000e32:	6078      	str	r0, [r7, #4]
  WRITE_REG(TIMx->SR, ~(TIM_SR_UIF));
 8000e34:	687b      	ldr	r3, [r7, #4]
 8000e36:	2202      	movs	r2, #2
 8000e38:	4252      	negs	r2, r2
 8000e3a:	611a      	str	r2, [r3, #16]
}
 8000e3c:	46c0      	nop			; (mov r8, r8)
 8000e3e:	46bd      	mov	sp, r7
 8000e40:	b002      	add	sp, #8
 8000e42:	bd80      	pop	{r7, pc}

08000e44 <LL_TIM_IsActiveFlag_UPDATE>:
{
 8000e44:	b580      	push	{r7, lr}
 8000e46:	b082      	sub	sp, #8
 8000e48:	af00      	add	r7, sp, #0
 8000e4a:	6078      	str	r0, [r7, #4]
  return ((READ_BIT(TIMx->SR, TIM_SR_UIF) == (TIM_SR_UIF)) ? 1UL : 0UL);
 8000e4c:	687b      	ldr	r3, [r7, #4]
 8000e4e:	691b      	ldr	r3, [r3, #16]
 8000e50:	2201      	movs	r2, #1
 8000e52:	4013      	ands	r3, r2
 8000e54:	2b01      	cmp	r3, #1
 8000e56:	d101      	bne.n	8000e5c <LL_TIM_IsActiveFlag_UPDATE+0x18>
 8000e58:	2301      	movs	r3, #1
 8000e5a:	e000      	b.n	8000e5e <LL_TIM_IsActiveFlag_UPDATE+0x1a>
 8000e5c:	2300      	movs	r3, #0
}
 8000e5e:	0018      	movs	r0, r3
 8000e60:	46bd      	mov	sp, r7
 8000e62:	b002      	add	sp, #8
 8000e64:	bd80      	pop	{r7, pc}

08000e66 <LL_USART_IsActiveFlag_RXNE_RXFNE>:
{
 8000e66:	b580      	push	{r7, lr}
 8000e68:	b082      	sub	sp, #8
 8000e6a:	af00      	add	r7, sp, #0
 8000e6c:	6078      	str	r0, [r7, #4]
  return ((READ_BIT(USARTx->ISR, USART_ISR_RXNE_RXFNE) == (USART_ISR_RXNE_RXFNE)) ? 1UL : 0UL);
 8000e6e:	687b      	ldr	r3, [r7, #4]
 8000e70:	69db      	ldr	r3, [r3, #28]
 8000e72:	2220      	movs	r2, #32
 8000e74:	4013      	ands	r3, r2
 8000e76:	2b20      	cmp	r3, #32
 8000e78:	d101      	bne.n	8000e7e <LL_USART_IsActiveFlag_RXNE_RXFNE+0x18>
 8000e7a:	2301      	movs	r3, #1
 8000e7c:	e000      	b.n	8000e80 <LL_USART_IsActiveFlag_RXNE_RXFNE+0x1a>
 8000e7e:	2300      	movs	r3, #0
}
 8000e80:	0018      	movs	r0, r3
 8000e82:	46bd      	mov	sp, r7
 8000e84:	b002      	add	sp, #8
 8000e86:	bd80      	pop	{r7, pc}

08000e88 <LL_USART_EnableIT_RXNE_RXFNE>:
{
 8000e88:	b580      	push	{r7, lr}
 8000e8a:	b086      	sub	sp, #24
 8000e8c:	af00      	add	r7, sp, #0
 8000e8e:	6078      	str	r0, [r7, #4]
  __ASM volatile ("MRS %0, primask" : "=r" (result) :: "memory");
 8000e90:	f3ef 8310 	mrs	r3, PRIMASK
 8000e94:	60bb      	str	r3, [r7, #8]
  return(result);
 8000e96:	68bb      	ldr	r3, [r7, #8]
  ATOMIC_SET_BIT(USARTx->CR1, USART_CR1_RXNEIE_RXFNEIE);
 8000e98:	617b      	str	r3, [r7, #20]
 8000e9a:	2301      	movs	r3, #1
 8000e9c:	60fb      	str	r3, [r7, #12]
  __ASM volatile ("MSR primask, %0" : : "r" (priMask) : "memory");
 8000e9e:	68fb      	ldr	r3, [r7, #12]
 8000ea0:	f383 8810 	msr	PRIMASK, r3
}
 8000ea4:	46c0      	nop			; (mov r8, r8)
 8000ea6:	687b      	ldr	r3, [r7, #4]
 8000ea8:	681b      	ldr	r3, [r3, #0]
 8000eaa:	2220      	movs	r2, #32
 8000eac:	431a      	orrs	r2, r3
 8000eae:	687b      	ldr	r3, [r7, #4]
 8000eb0:	601a      	str	r2, [r3, #0]
 8000eb2:	697b      	ldr	r3, [r7, #20]
 8000eb4:	613b      	str	r3, [r7, #16]
  __ASM volatile ("MSR primask, %0" : : "r" (priMask) : "memory");
 8000eb6:	693b      	ldr	r3, [r7, #16]
 8000eb8:	f383 8810 	msr	PRIMASK, r3
}
 8000ebc:	46c0      	nop			; (mov r8, r8)
}
 8000ebe:	46c0      	nop			; (mov r8, r8)
 8000ec0:	46bd      	mov	sp, r7
 8000ec2:	b006      	add	sp, #24
 8000ec4:	bd80      	pop	{r7, pc}

08000ec6 <LL_USART_DisableIT_RXNE_RXFNE>:
  * @rmtoll CR1        RXNEIE_RXFNEIE  LL_USART_DisableIT_RXNE_RXFNE
  * @param  USARTx USART Instance
  * @retval None
  */
__STATIC_INLINE void LL_USART_DisableIT_RXNE_RXFNE(USART_TypeDef *USARTx)
{
 8000ec6:	b580      	push	{r7, lr}
 8000ec8:	b086      	sub	sp, #24
 8000eca:	af00      	add	r7, sp, #0
 8000ecc:	6078      	str	r0, [r7, #4]
  __ASM volatile ("MRS %0, primask" : "=r" (result) :: "memory");
 8000ece:	f3ef 8310 	mrs	r3, PRIMASK
 8000ed2:	60bb      	str	r3, [r7, #8]
  return(result);
 8000ed4:	68bb      	ldr	r3, [r7, #8]
  ATOMIC_CLEAR_BIT(USARTx->CR1, USART_CR1_RXNEIE_RXFNEIE);
 8000ed6:	617b      	str	r3, [r7, #20]
 8000ed8:	2301      	movs	r3, #1
 8000eda:	60fb      	str	r3, [r7, #12]
  __ASM volatile ("MSR primask, %0" : : "r" (priMask) : "memory");
 8000edc:	68fb      	ldr	r3, [r7, #12]
 8000ede:	f383 8810 	msr	PRIMASK, r3
}
 8000ee2:	46c0      	nop			; (mov r8, r8)
 8000ee4:	687b      	ldr	r3, [r7, #4]
 8000ee6:	681b      	ldr	r3, [r3, #0]
 8000ee8:	2220      	movs	r2, #32
 8000eea:	4393      	bics	r3, r2
 8000eec:	001a      	movs	r2, r3
 8000eee:	687b      	ldr	r3, [r7, #4]
 8000ef0:	601a      	str	r2, [r3, #0]
 8000ef2:	697b      	ldr	r3, [r7, #20]
 8000ef4:	613b      	str	r3, [r7, #16]
  __ASM volatile ("MSR primask, %0" : : "r" (priMask) : "memory");
 8000ef6:	693b      	ldr	r3, [r7, #16]
 8000ef8:	f383 8810 	msr	PRIMASK, r3
}
 8000efc:	46c0      	nop			; (mov r8, r8)
}
 8000efe:	46c0      	nop			; (mov r8, r8)
 8000f00:	46bd      	mov	sp, r7
 8000f02:	b006      	add	sp, #24
 8000f04:	bd80      	pop	{r7, pc}

08000f06 <LL_USART_ReceiveData8>:
  * @rmtoll RDR          RDR           LL_USART_ReceiveData8
  * @param  USARTx USART Instance
  * @retval Value between Min_Data=0x00 and Max_Data=0xFF
  */
__STATIC_INLINE uint8_t LL_USART_ReceiveData8(const USART_TypeDef *USARTx)
{
 8000f06:	b580      	push	{r7, lr}
 8000f08:	b082      	sub	sp, #8
 8000f0a:	af00      	add	r7, sp, #0
 8000f0c:	6078      	str	r0, [r7, #4]
  return (uint8_t)(READ_BIT(USARTx->RDR, USART_RDR_RDR) & 0xFFU);
 8000f0e:	687b      	ldr	r3, [r7, #4]
 8000f10:	6a5b      	ldr	r3, [r3, #36]	; 0x24
 8000f12:	b2db      	uxtb	r3, r3
}
 8000f14:	0018      	movs	r0, r3
 8000f16:	46bd      	mov	sp, r7
 8000f18:	b002      	add	sp, #8
 8000f1a:	bd80      	pop	{r7, pc}

08000f1c <LL_USART_TransmitData8>:
  * @param  USARTx USART Instance
  * @param  Value between Min_Data=0x00 and Max_Data=0xFF
  * @retval None
  */
__STATIC_INLINE void LL_USART_TransmitData8(USART_TypeDef *USARTx, uint8_t Value)
{
 8000f1c:	b580      	push	{r7, lr}
 8000f1e:	b082      	sub	sp, #8
 8000f20:	af00      	add	r7, sp, #0
 8000f22:	6078      	str	r0, [r7, #4]
 8000f24:	000a      	movs	r2, r1
 8000f26:	1cfb      	adds	r3, r7, #3
 8000f28:	701a      	strb	r2, [r3, #0]
  USARTx->TDR = Value;
 8000f2a:	1cfb      	adds	r3, r7, #3
 8000f2c:	781a      	ldrb	r2, [r3, #0]
 8000f2e:	687b      	ldr	r3, [r7, #4]
 8000f30:	629a      	str	r2, [r3, #40]	; 0x28
}
 8000f32:	46c0      	nop			; (mov r8, r8)
 8000f34:	46bd      	mov	sp, r7
 8000f36:	b002      	add	sp, #8
 8000f38:	bd80      	pop	{r7, pc}

08000f3a <LL_GPIO_TogglePin>:
  *         @arg @ref LL_GPIO_PIN_15
  *         @arg @ref LL_GPIO_PIN_ALL
  * @retval None
  */
__STATIC_INLINE void LL_GPIO_TogglePin(GPIO_TypeDef *GPIOx, uint32_t PinMask)
{
 8000f3a:	b580      	push	{r7, lr}
 8000f3c:	b084      	sub	sp, #16
 8000f3e:	af00      	add	r7, sp, #0
 8000f40:	6078      	str	r0, [r7, #4]
 8000f42:	6039      	str	r1, [r7, #0]
  uint32_t odr = READ_REG(GPIOx->ODR);
 8000f44:	687b      	ldr	r3, [r7, #4]
 8000f46:	695b      	ldr	r3, [r3, #20]
 8000f48:	60fb      	str	r3, [r7, #12]
  WRITE_REG(GPIOx->BSRR, ((odr & PinMask) << 16u) | (~odr & PinMask));
 8000f4a:	68fb      	ldr	r3, [r7, #12]
 8000f4c:	683a      	ldr	r2, [r7, #0]
 8000f4e:	4013      	ands	r3, r2
 8000f50:	041a      	lsls	r2, r3, #16
 8000f52:	68fb      	ldr	r3, [r7, #12]
 8000f54:	43db      	mvns	r3, r3
 8000f56:	6839      	ldr	r1, [r7, #0]
 8000f58:	400b      	ands	r3, r1
 8000f5a:	431a      	orrs	r2, r3
 8000f5c:	687b      	ldr	r3, [r7, #4]
 8000f5e:	619a      	str	r2, [r3, #24]
}
 8000f60:	46c0      	nop			; (mov r8, r8)
 8000f62:	46bd      	mov	sp, r7
 8000f64:	b004      	add	sp, #16
 8000f66:	bd80      	pop	{r7, pc}

08000f68 <NMI_Handler>:
/******************************************************************************/
/**
  * @brief This function handles Non maskable interrupt.
  */
void NMI_Handler(void)
{
 8000f68:	b580      	push	{r7, lr}
 8000f6a:	af00      	add	r7, sp, #0
  /* USER CODE BEGIN NonMaskableInt_IRQn 0 */

  /* USER CODE END NonMaskableInt_IRQn 0 */
  /* USER CODE BEGIN NonMaskableInt_IRQn 1 */
   while (1)
 8000f6c:	e7fe      	b.n	8000f6c <NMI_Handler+0x4>

08000f6e <HardFault_Handler>:

/**
  * @brief This function handles Hard fault interrupt.
  */
void HardFault_Handler(void)
{
 8000f6e:	b580      	push	{r7, lr}
 8000f70:	af00      	add	r7, sp, #0
  /* USER CODE BEGIN HardFault_IRQn 0 */

  /* USER CODE END HardFault_IRQn 0 */
  while (1)
 8000f72:	e7fe      	b.n	8000f72 <HardFault_Handler+0x4>

08000f74 <SVC_Handler>:

/**
  * @brief This function handles System service call via SWI instruction.
  */
void SVC_Handler(void)
{
 8000f74:	b580      	push	{r7, lr}
 8000f76:	af00      	add	r7, sp, #0

  /* USER CODE END SVC_IRQn 0 */
  /* USER CODE BEGIN SVC_IRQn 1 */

  /* USER CODE END SVC_IRQn 1 */
}
 8000f78:	46c0      	nop			; (mov r8, r8)
 8000f7a:	46bd      	mov	sp, r7
 8000f7c:	bd80      	pop	{r7, pc}

08000f7e <PendSV_Handler>:

/**
  * @brief This function handles Pendable request for system service.
  */
void PendSV_Handler(void)
{
 8000f7e:	b580      	push	{r7, lr}
 8000f80:	af00      	add	r7, sp, #0

  /* USER CODE END PendSV_IRQn 0 */
  /* USER CODE BEGIN PendSV_IRQn 1 */

  /* USER CODE END PendSV_IRQn 1 */
}
 8000f82:	46c0      	nop			; (mov r8, r8)
 8000f84:	46bd      	mov	sp, r7
 8000f86:	bd80      	pop	{r7, pc}

08000f88 <SysTick_Handler>:

/**
  * @brief This function handles System tick timer.
  */
void SysTick_Handler(void)
{
 8000f88:	b580      	push	{r7, lr}
 8000f8a:	af00      	add	r7, sp, #0
  /* USER CODE BEGIN SysTick_IRQn 0 */

  /* USER CODE END SysTick_IRQn 0 */
  HAL_IncTick();
 8000f8c:	f000 fa26 	bl	80013dc <HAL_IncTick>
  /* USER CODE BEGIN SysTick_IRQn 1 */

  /* USER CODE END SysTick_IRQn 1 */
}
 8000f90:	46c0      	nop			; (mov r8, r8)
 8000f92:	46bd      	mov	sp, r7
 8000f94:	bd80      	pop	{r7, pc}
	...

08000f98 <TIM14_IRQHandler>:

/**
  * @brief This function handles TIM14 global interrupt.
  */
void TIM14_IRQHandler(void)
{
 8000f98:	b580      	push	{r7, lr}
 8000f9a:	af00      	add	r7, sp, #0
  /* USER CODE BEGIN TIM14_IRQn 0 */
	if (LL_TIM_IsActiveFlag_UPDATE(TIM14)) {
 8000f9c:	4b09      	ldr	r3, [pc, #36]	; (8000fc4 <TIM14_IRQHandler+0x2c>)
 8000f9e:	0018      	movs	r0, r3
 8000fa0:	f7ff ff50 	bl	8000e44 <LL_TIM_IsActiveFlag_UPDATE>
 8000fa4:	1e03      	subs	r3, r0, #0
 8000fa6:	d00a      	beq.n	8000fbe <TIM14_IRQHandler+0x26>
		LL_TIM_ClearFlag_UPDATE(TIM14);
 8000fa8:	4b06      	ldr	r3, [pc, #24]	; (8000fc4 <TIM14_IRQHandler+0x2c>)
 8000faa:	0018      	movs	r0, r3
 8000fac:	f7ff ff3e 	bl	8000e2c <LL_TIM_ClearFlag_UPDATE>
		LL_GPIO_TogglePin(LED_GPIO_Port, LED_Pin);
 8000fb0:	2380      	movs	r3, #128	; 0x80
 8000fb2:	021b      	lsls	r3, r3, #8
 8000fb4:	4a04      	ldr	r2, [pc, #16]	; (8000fc8 <TIM14_IRQHandler+0x30>)
 8000fb6:	0019      	movs	r1, r3
 8000fb8:	0010      	movs	r0, r2
 8000fba:	f7ff ffbe 	bl	8000f3a <LL_GPIO_TogglePin>
	}
  /* USER CODE END TIM14_IRQn 0 */
  /* USER CODE BEGIN TIM14_IRQn 1 */

  /* USER CODE END TIM14_IRQn 1 */
}
 8000fbe:	46c0      	nop			; (mov r8, r8)
 8000fc0:	46bd      	mov	sp, r7
 8000fc2:	bd80      	pop	{r7, pc}
 8000fc4:	40002000 	.word	0x40002000
 8000fc8:	50000800 	.word	0x50000800

08000fcc <USART1_IRQHandler>:

/**
  * @brief This function handles USART1 global interrupt / USART1 wake-up interrupt through EXTI line 25.
  */
void USART1_IRQHandler(void)
{
 8000fcc:	b590      	push	{r4, r7, lr}
 8000fce:	b083      	sub	sp, #12
 8000fd0:	af00      	add	r7, sp, #0
  /* USER CODE BEGIN USART1_IRQn 0 */
	char letter;
	static uint8_t cnt = 0;
	if (LL_USART_IsActiveFlag_RXNE(USART1)) {
 8000fd2:	4b28      	ldr	r3, [pc, #160]	; (8001074 <USART1_IRQHandler+0xa8>)
 8000fd4:	0018      	movs	r0, r3
 8000fd6:	f7ff ff46 	bl	8000e66 <LL_USART_IsActiveFlag_RXNE_RXFNE>
 8000fda:	1e03      	subs	r3, r0, #0
 8000fdc:	d045      	beq.n	800106a <USART1_IRQHandler+0x9e>
		LL_USART_DisableIT_RXNE(USART2);
 8000fde:	4b26      	ldr	r3, [pc, #152]	; (8001078 <USART1_IRQHandler+0xac>)
 8000fe0:	0018      	movs	r0, r3
 8000fe2:	f7ff ff70 	bl	8000ec6 <LL_USART_DisableIT_RXNE_RXFNE>
		letter = LL_USART_ReceiveData8(USART1);
 8000fe6:	1dfc      	adds	r4, r7, #7
 8000fe8:	4b22      	ldr	r3, [pc, #136]	; (8001074 <USART1_IRQHandler+0xa8>)
 8000fea:	0018      	movs	r0, r3
 8000fec:	f7ff ff8b 	bl	8000f06 <LL_USART_ReceiveData8>
 8000ff0:	0003      	movs	r3, r0
 8000ff2:	7023      	strb	r3, [r4, #0]
		LL_USART_TransmitData8(USART2, letter);
 8000ff4:	1dfb      	adds	r3, r7, #7
 8000ff6:	781b      	ldrb	r3, [r3, #0]
 8000ff8:	4a1f      	ldr	r2, [pc, #124]	; (8001078 <USART1_IRQHandler+0xac>)
 8000ffa:	0019      	movs	r1, r3
 8000ffc:	0010      	movs	r0, r2
 8000ffe:	f7ff ff8d 	bl	8000f1c <LL_USART_TransmitData8>
		if (letter != ';') {
 8001002:	1dfb      	adds	r3, r7, #7
 8001004:	781b      	ldrb	r3, [r3, #0]
 8001006:	2b3b      	cmp	r3, #59	; 0x3b
 8001008:	d014      	beq.n	8001034 <USART1_IRQHandler+0x68>
			PCData[cnt] = letter;
 800100a:	4b1c      	ldr	r3, [pc, #112]	; (800107c <USART1_IRQHandler+0xb0>)
 800100c:	781b      	ldrb	r3, [r3, #0]
 800100e:	0019      	movs	r1, r3
 8001010:	4b1b      	ldr	r3, [pc, #108]	; (8001080 <USART1_IRQHandler+0xb4>)
 8001012:	1dfa      	adds	r2, r7, #7
 8001014:	7812      	ldrb	r2, [r2, #0]
 8001016:	545a      	strb	r2, [r3, r1]
			cnt++;
 8001018:	4b18      	ldr	r3, [pc, #96]	; (800107c <USART1_IRQHandler+0xb0>)
 800101a:	781b      	ldrb	r3, [r3, #0]
 800101c:	3301      	adds	r3, #1
 800101e:	b2da      	uxtb	r2, r3
 8001020:	4b16      	ldr	r3, [pc, #88]	; (800107c <USART1_IRQHandler+0xb0>)
 8001022:	701a      	strb	r2, [r3, #0]
			if (cnt == 39)
 8001024:	4b15      	ldr	r3, [pc, #84]	; (800107c <USART1_IRQHandler+0xb0>)
 8001026:	781b      	ldrb	r3, [r3, #0]
 8001028:	2b27      	cmp	r3, #39	; 0x27
 800102a:	d11a      	bne.n	8001062 <USART1_IRQHandler+0x96>
				cnt = 0;
 800102c:	4b13      	ldr	r3, [pc, #76]	; (800107c <USART1_IRQHandler+0xb0>)
 800102e:	2200      	movs	r2, #0
 8001030:	701a      	strb	r2, [r3, #0]
 8001032:	e016      	b.n	8001062 <USART1_IRQHandler+0x96>
		} else {
			PCData[cnt] = ';';
 8001034:	4b11      	ldr	r3, [pc, #68]	; (800107c <USART1_IRQHandler+0xb0>)
 8001036:	781b      	ldrb	r3, [r3, #0]
 8001038:	001a      	movs	r2, r3
 800103a:	4b11      	ldr	r3, [pc, #68]	; (8001080 <USART1_IRQHandler+0xb4>)
 800103c:	213b      	movs	r1, #59	; 0x3b
 800103e:	5499      	strb	r1, [r3, r2]
			cnt = 0;
 8001040:	4b0e      	ldr	r3, [pc, #56]	; (800107c <USART1_IRQHandler+0xb0>)
 8001042:	2200      	movs	r2, #0
 8001044:	701a      	strb	r2, [r3, #0]
			if ((PCData[0] == 'I') && (PCData[1] == 'F')) {
 8001046:	4b0e      	ldr	r3, [pc, #56]	; (8001080 <USART1_IRQHandler+0xb4>)
 8001048:	781b      	ldrb	r3, [r3, #0]
 800104a:	2b49      	cmp	r3, #73	; 0x49
 800104c:	d109      	bne.n	8001062 <USART1_IRQHandler+0x96>
 800104e:	4b0c      	ldr	r3, [pc, #48]	; (8001080 <USART1_IRQHandler+0xb4>)
 8001050:	785b      	ldrb	r3, [r3, #1]
 8001052:	2b46      	cmp	r3, #70	; 0x46
 8001054:	d105      	bne.n	8001062 <USART1_IRQHandler+0x96>
				time_last_pcdata = HAL_GetTick();
 8001056:	f000 f9d3 	bl	8001400 <HAL_GetTick>
 800105a:	0003      	movs	r3, r0
 800105c:	001a      	movs	r2, r3
 800105e:	4b09      	ldr	r3, [pc, #36]	; (8001084 <USART1_IRQHandler+0xb8>)
 8001060:	601a      	str	r2, [r3, #0]
			}
		}
		LL_USART_EnableIT_RXNE(USART2);
 8001062:	4b05      	ldr	r3, [pc, #20]	; (8001078 <USART1_IRQHandler+0xac>)
 8001064:	0018      	movs	r0, r3
 8001066:	f7ff ff0f 	bl	8000e88 <LL_USART_EnableIT_RXNE_RXFNE>
	}
  /* USER CODE END USART1_IRQn 0 */
  /* USER CODE BEGIN USART1_IRQn 1 */

  /* USER CODE END USART1_IRQn 1 */
}
 800106a:	46c0      	nop			; (mov r8, r8)
 800106c:	46bd      	mov	sp, r7
 800106e:	b003      	add	sp, #12
 8001070:	bd90      	pop	{r4, r7, pc}
 8001072:	46c0      	nop			; (mov r8, r8)
 8001074:	40013800 	.word	0x40013800
 8001078:	40004400 	.word	0x40004400
 800107c:	20000084 	.word	0x20000084
 8001080:	20000034 	.word	0x20000034
 8001084:	20000030 	.word	0x20000030

08001088 <USART2_IRQHandler>:

/**
  * @brief This function handles USART2 global interrupt / USART2 wake-up interrupt through EXTI line 26.
  */
void USART2_IRQHandler(void)
{
 8001088:	b590      	push	{r4, r7, lr}
 800108a:	b083      	sub	sp, #12
 800108c:	af00      	add	r7, sp, #0
  /* USER CODE BEGIN USART2_IRQn 0 */
	char letter;
	static uint8_t i = 0;
	if (LL_USART_IsActiveFlag_RXNE(USART2)) {
 800108e:	4b80      	ldr	r3, [pc, #512]	; (8001290 <USART2_IRQHandler+0x208>)
 8001090:	0018      	movs	r0, r3
 8001092:	f7ff fee8 	bl	8000e66 <LL_USART_IsActiveFlag_RXNE_RXFNE>
 8001096:	1e03      	subs	r3, r0, #0
 8001098:	d100      	bne.n	800109c <USART2_IRQHandler+0x14>
 800109a:	e0f5      	b.n	8001288 <USART2_IRQHandler+0x200>
		LL_USART_DisableIT_RXNE(USART1);
 800109c:	4b7d      	ldr	r3, [pc, #500]	; (8001294 <USART2_IRQHandler+0x20c>)
 800109e:	0018      	movs	r0, r3
 80010a0:	f7ff ff11 	bl	8000ec6 <LL_USART_DisableIT_RXNE_RXFNE>
		letter = LL_USART_ReceiveData8(USART2);
 80010a4:	1dfc      	adds	r4, r7, #7
 80010a6:	4b7a      	ldr	r3, [pc, #488]	; (8001290 <USART2_IRQHandler+0x208>)
 80010a8:	0018      	movs	r0, r3
 80010aa:	f7ff ff2c 	bl	8000f06 <LL_USART_ReceiveData8>
 80010ae:	0003      	movs	r3, r0
 80010b0:	7023      	strb	r3, [r4, #0]
		LL_USART_TransmitData8(USART1, letter);
 80010b2:	1dfb      	adds	r3, r7, #7
 80010b4:	781b      	ldrb	r3, [r3, #0]
 80010b6:	4a77      	ldr	r2, [pc, #476]	; (8001294 <USART2_IRQHandler+0x20c>)
 80010b8:	0019      	movs	r1, r3
 80010ba:	0010      	movs	r0, r2
 80010bc:	f7ff ff2e 	bl	8000f1c <LL_USART_TransmitData8>
		if (letter != ';') {
 80010c0:	1dfb      	adds	r3, r7, #7
 80010c2:	781b      	ldrb	r3, [r3, #0]
 80010c4:	2b3b      	cmp	r3, #59	; 0x3b
 80010c6:	d018      	beq.n	80010fa <USART2_IRQHandler+0x72>
			TRXData[i] = letter;
 80010c8:	4b73      	ldr	r3, [pc, #460]	; (8001298 <USART2_IRQHandler+0x210>)
 80010ca:	781b      	ldrb	r3, [r3, #0]
 80010cc:	0019      	movs	r1, r3
 80010ce:	4b73      	ldr	r3, [pc, #460]	; (800129c <USART2_IRQHandler+0x214>)
 80010d0:	1dfa      	adds	r2, r7, #7
 80010d2:	7812      	ldrb	r2, [r2, #0]
 80010d4:	545a      	strb	r2, [r3, r1]
			i++;
 80010d6:	4b70      	ldr	r3, [pc, #448]	; (8001298 <USART2_IRQHandler+0x210>)
 80010d8:	781b      	ldrb	r3, [r3, #0]
 80010da:	3301      	adds	r3, #1
 80010dc:	b2da      	uxtb	r2, r3
 80010de:	4b6e      	ldr	r3, [pc, #440]	; (8001298 <USART2_IRQHandler+0x210>)
 80010e0:	701a      	strb	r2, [r3, #0]
			isDataReady = 0;
 80010e2:	4b6f      	ldr	r3, [pc, #444]	; (80012a0 <USART2_IRQHandler+0x218>)
 80010e4:	2200      	movs	r2, #0
 80010e6:	601a      	str	r2, [r3, #0]
			if (i == 39)
 80010e8:	4b6b      	ldr	r3, [pc, #428]	; (8001298 <USART2_IRQHandler+0x210>)
 80010ea:	781b      	ldrb	r3, [r3, #0]
 80010ec:	2b27      	cmp	r3, #39	; 0x27
 80010ee:	d000      	beq.n	80010f2 <USART2_IRQHandler+0x6a>
 80010f0:	e0c6      	b.n	8001280 <USART2_IRQHandler+0x1f8>
				i = 0;
 80010f2:	4b69      	ldr	r3, [pc, #420]	; (8001298 <USART2_IRQHandler+0x210>)
 80010f4:	2200      	movs	r2, #0
 80010f6:	701a      	strb	r2, [r3, #0]
 80010f8:	e0c2      	b.n	8001280 <USART2_IRQHandler+0x1f8>
		} else {
			TRXData[i] = ';';
 80010fa:	4b67      	ldr	r3, [pc, #412]	; (8001298 <USART2_IRQHandler+0x210>)
 80010fc:	781b      	ldrb	r3, [r3, #0]
 80010fe:	001a      	movs	r2, r3
 8001100:	4b66      	ldr	r3, [pc, #408]	; (800129c <USART2_IRQHandler+0x214>)
 8001102:	213b      	movs	r1, #59	; 0x3b
 8001104:	5499      	strb	r1, [r3, r2]
			i = 0;
 8001106:	4b64      	ldr	r3, [pc, #400]	; (8001298 <USART2_IRQHandler+0x210>)
 8001108:	2200      	movs	r2, #0
 800110a:	701a      	strb	r2, [r3, #0]
			if ((TRXData[0] == 'I') && (TRXData[1] == 'F')) {
 800110c:	4b63      	ldr	r3, [pc, #396]	; (800129c <USART2_IRQHandler+0x214>)
 800110e:	781b      	ldrb	r3, [r3, #0]
 8001110:	2b49      	cmp	r3, #73	; 0x49
 8001112:	d000      	beq.n	8001116 <USART2_IRQHandler+0x8e>
 8001114:	e0b4      	b.n	8001280 <USART2_IRQHandler+0x1f8>
 8001116:	4b61      	ldr	r3, [pc, #388]	; (800129c <USART2_IRQHandler+0x214>)
 8001118:	785b      	ldrb	r3, [r3, #1]
 800111a:	2b46      	cmp	r3, #70	; 0x46
 800111c:	d000      	beq.n	8001120 <USART2_IRQHandler+0x98>
 800111e:	e0af      	b.n	8001280 <USART2_IRQHandler+0x1f8>
				isDataReady = 1;
 8001120:	4b5f      	ldr	r3, [pc, #380]	; (80012a0 <USART2_IRQHandler+0x218>)
 8001122:	2201      	movs	r2, #1
 8001124:	601a      	str	r2, [r3, #0]
				if ((TRXData[5] == '0') && (TRXData[6] == '1')
 8001126:	4b5d      	ldr	r3, [pc, #372]	; (800129c <USART2_IRQHandler+0x214>)
 8001128:	795b      	ldrb	r3, [r3, #5]
 800112a:	2b30      	cmp	r3, #48	; 0x30
 800112c:	d10e      	bne.n	800114c <USART2_IRQHandler+0xc4>
 800112e:	4b5b      	ldr	r3, [pc, #364]	; (800129c <USART2_IRQHandler+0x214>)
 8001130:	799b      	ldrb	r3, [r3, #6]
 8001132:	2b31      	cmp	r3, #49	; 0x31
 8001134:	d10a      	bne.n	800114c <USART2_IRQHandler+0xc4>
						&& ((TRXData[7] == '8') || (TRXData[7] == '9')))
 8001136:	4b59      	ldr	r3, [pc, #356]	; (800129c <USART2_IRQHandler+0x214>)
 8001138:	79db      	ldrb	r3, [r3, #7]
 800113a:	2b38      	cmp	r3, #56	; 0x38
 800113c:	d003      	beq.n	8001146 <USART2_IRQHandler+0xbe>
 800113e:	4b57      	ldr	r3, [pc, #348]	; (800129c <USART2_IRQHandler+0x214>)
 8001140:	79db      	ldrb	r3, [r3, #7]
 8001142:	2b39      	cmp	r3, #57	; 0x39
 8001144:	d102      	bne.n	800114c <USART2_IRQHandler+0xc4>
					flag_band = 160; //160m 1800-1900 kHz
 8001146:	4b57      	ldr	r3, [pc, #348]	; (80012a4 <USART2_IRQHandler+0x21c>)
 8001148:	22a0      	movs	r2, #160	; 0xa0
 800114a:	601a      	str	r2, [r3, #0]
				if ((TRXData[5] == '0') && (TRXData[6] == '3'))
 800114c:	4b53      	ldr	r3, [pc, #332]	; (800129c <USART2_IRQHandler+0x214>)
 800114e:	795b      	ldrb	r3, [r3, #5]
 8001150:	2b30      	cmp	r3, #48	; 0x30
 8001152:	d106      	bne.n	8001162 <USART2_IRQHandler+0xda>
 8001154:	4b51      	ldr	r3, [pc, #324]	; (800129c <USART2_IRQHandler+0x214>)
 8001156:	799b      	ldrb	r3, [r3, #6]
 8001158:	2b33      	cmp	r3, #51	; 0x33
 800115a:	d102      	bne.n	8001162 <USART2_IRQHandler+0xda>
					flag_band = 80; //80m 3500-3800 kHz
 800115c:	4b51      	ldr	r3, [pc, #324]	; (80012a4 <USART2_IRQHandler+0x21c>)
 800115e:	2250      	movs	r2, #80	; 0x50
 8001160:	601a      	str	r2, [r3, #0]
				if ((TRXData[5] == '0') && (TRXData[6] == '5')
 8001162:	4b4e      	ldr	r3, [pc, #312]	; (800129c <USART2_IRQHandler+0x214>)
 8001164:	795b      	ldrb	r3, [r3, #5]
 8001166:	2b30      	cmp	r3, #48	; 0x30
 8001168:	d10e      	bne.n	8001188 <USART2_IRQHandler+0x100>
 800116a:	4b4c      	ldr	r3, [pc, #304]	; (800129c <USART2_IRQHandler+0x214>)
 800116c:	799b      	ldrb	r3, [r3, #6]
 800116e:	2b35      	cmp	r3, #53	; 0x35
 8001170:	d10a      	bne.n	8001188 <USART2_IRQHandler+0x100>
						&& ((TRXData[7] == '3') || (TRXData[7] == '4')))
 8001172:	4b4a      	ldr	r3, [pc, #296]	; (800129c <USART2_IRQHandler+0x214>)
 8001174:	79db      	ldrb	r3, [r3, #7]
 8001176:	2b33      	cmp	r3, #51	; 0x33
 8001178:	d003      	beq.n	8001182 <USART2_IRQHandler+0xfa>
 800117a:	4b48      	ldr	r3, [pc, #288]	; (800129c <USART2_IRQHandler+0x214>)
 800117c:	79db      	ldrb	r3, [r3, #7]
 800117e:	2b34      	cmp	r3, #52	; 0x34
 8001180:	d102      	bne.n	8001188 <USART2_IRQHandler+0x100>
					flag_band = 60; //60m 5300-5400 kHz
 8001182:	4b48      	ldr	r3, [pc, #288]	; (80012a4 <USART2_IRQHandler+0x21c>)
 8001184:	223c      	movs	r2, #60	; 0x3c
 8001186:	601a      	str	r2, [r3, #0]
				if ((TRXData[5] == '0') && (TRXData[6] == '7')
 8001188:	4b44      	ldr	r3, [pc, #272]	; (800129c <USART2_IRQHandler+0x214>)
 800118a:	795b      	ldrb	r3, [r3, #5]
 800118c:	2b30      	cmp	r3, #48	; 0x30
 800118e:	d112      	bne.n	80011b6 <USART2_IRQHandler+0x12e>
 8001190:	4b42      	ldr	r3, [pc, #264]	; (800129c <USART2_IRQHandler+0x214>)
 8001192:	799b      	ldrb	r3, [r3, #6]
 8001194:	2b37      	cmp	r3, #55	; 0x37
 8001196:	d10e      	bne.n	80011b6 <USART2_IRQHandler+0x12e>
						&& ((TRXData[7] == '0') || (TRXData[7] == '1')
 8001198:	4b40      	ldr	r3, [pc, #256]	; (800129c <USART2_IRQHandler+0x214>)
 800119a:	79db      	ldrb	r3, [r3, #7]
 800119c:	2b30      	cmp	r3, #48	; 0x30
 800119e:	d007      	beq.n	80011b0 <USART2_IRQHandler+0x128>
 80011a0:	4b3e      	ldr	r3, [pc, #248]	; (800129c <USART2_IRQHandler+0x214>)
 80011a2:	79db      	ldrb	r3, [r3, #7]
 80011a4:	2b31      	cmp	r3, #49	; 0x31
 80011a6:	d003      	beq.n	80011b0 <USART2_IRQHandler+0x128>
								|| (TRXData[7] == '2')))
 80011a8:	4b3c      	ldr	r3, [pc, #240]	; (800129c <USART2_IRQHandler+0x214>)
 80011aa:	79db      	ldrb	r3, [r3, #7]
 80011ac:	2b32      	cmp	r3, #50	; 0x32
 80011ae:	d102      	bne.n	80011b6 <USART2_IRQHandler+0x12e>
					flag_band = 40; //40m 7000-7200 kHz
 80011b0:	4b3c      	ldr	r3, [pc, #240]	; (80012a4 <USART2_IRQHandler+0x21c>)
 80011b2:	2228      	movs	r2, #40	; 0x28
 80011b4:	601a      	str	r2, [r3, #0]
				if ((TRXData[5] == '1') && (TRXData[6] == '0')
 80011b6:	4b39      	ldr	r3, [pc, #228]	; (800129c <USART2_IRQHandler+0x214>)
 80011b8:	795b      	ldrb	r3, [r3, #5]
 80011ba:	2b31      	cmp	r3, #49	; 0x31
 80011bc:	d10a      	bne.n	80011d4 <USART2_IRQHandler+0x14c>
 80011be:	4b37      	ldr	r3, [pc, #220]	; (800129c <USART2_IRQHandler+0x214>)
 80011c0:	799b      	ldrb	r3, [r3, #6]
 80011c2:	2b30      	cmp	r3, #48	; 0x30
 80011c4:	d106      	bne.n	80011d4 <USART2_IRQHandler+0x14c>
						&& (TRXData[7] == '1'))
 80011c6:	4b35      	ldr	r3, [pc, #212]	; (800129c <USART2_IRQHandler+0x214>)
 80011c8:	79db      	ldrb	r3, [r3, #7]
 80011ca:	2b31      	cmp	r3, #49	; 0x31
 80011cc:	d102      	bne.n	80011d4 <USART2_IRQHandler+0x14c>
					flag_band = 30; //30m 10100 kHz
 80011ce:	4b35      	ldr	r3, [pc, #212]	; (80012a4 <USART2_IRQHandler+0x21c>)
 80011d0:	221e      	movs	r2, #30
 80011d2:	601a      	str	r2, [r3, #0]
				if ((TRXData[5] == '1') && (TRXData[6] == '4'))
 80011d4:	4b31      	ldr	r3, [pc, #196]	; (800129c <USART2_IRQHandler+0x214>)
 80011d6:	795b      	ldrb	r3, [r3, #5]
 80011d8:	2b31      	cmp	r3, #49	; 0x31
 80011da:	d106      	bne.n	80011ea <USART2_IRQHandler+0x162>
 80011dc:	4b2f      	ldr	r3, [pc, #188]	; (800129c <USART2_IRQHandler+0x214>)
 80011de:	799b      	ldrb	r3, [r3, #6]
 80011e0:	2b34      	cmp	r3, #52	; 0x34
 80011e2:	d102      	bne.n	80011ea <USART2_IRQHandler+0x162>
					flag_band = 20; //20m 14000-14350 kHz
 80011e4:	4b2f      	ldr	r3, [pc, #188]	; (80012a4 <USART2_IRQHandler+0x21c>)
 80011e6:	2214      	movs	r2, #20
 80011e8:	601a      	str	r2, [r3, #0]
				if ((TRXData[5] == '1') && (TRXData[6] == '8')
 80011ea:	4b2c      	ldr	r3, [pc, #176]	; (800129c <USART2_IRQHandler+0x214>)
 80011ec:	795b      	ldrb	r3, [r3, #5]
 80011ee:	2b31      	cmp	r3, #49	; 0x31
 80011f0:	d10e      	bne.n	8001210 <USART2_IRQHandler+0x188>
 80011f2:	4b2a      	ldr	r3, [pc, #168]	; (800129c <USART2_IRQHandler+0x214>)
 80011f4:	799b      	ldrb	r3, [r3, #6]
 80011f6:	2b38      	cmp	r3, #56	; 0x38
 80011f8:	d10a      	bne.n	8001210 <USART2_IRQHandler+0x188>
						&& ((TRXData[7] == '0') || (TRXData[7] == '1')))
 80011fa:	4b28      	ldr	r3, [pc, #160]	; (800129c <USART2_IRQHandler+0x214>)
 80011fc:	79db      	ldrb	r3, [r3, #7]
 80011fe:	2b30      	cmp	r3, #48	; 0x30
 8001200:	d003      	beq.n	800120a <USART2_IRQHandler+0x182>
 8001202:	4b26      	ldr	r3, [pc, #152]	; (800129c <USART2_IRQHandler+0x214>)
 8001204:	79db      	ldrb	r3, [r3, #7]
 8001206:	2b31      	cmp	r3, #49	; 0x31
 8001208:	d102      	bne.n	8001210 <USART2_IRQHandler+0x188>
					flag_band = 17; //17m 18068-18150 kHz
 800120a:	4b26      	ldr	r3, [pc, #152]	; (80012a4 <USART2_IRQHandler+0x21c>)
 800120c:	2211      	movs	r2, #17
 800120e:	601a      	str	r2, [r3, #0]
				if ((TRXData[5] == '2') && (TRXData[6] == '1'))
 8001210:	4b22      	ldr	r3, [pc, #136]	; (800129c <USART2_IRQHandler+0x214>)
 8001212:	795b      	ldrb	r3, [r3, #5]
 8001214:	2b32      	cmp	r3, #50	; 0x32
 8001216:	d106      	bne.n	8001226 <USART2_IRQHandler+0x19e>
 8001218:	4b20      	ldr	r3, [pc, #128]	; (800129c <USART2_IRQHandler+0x214>)
 800121a:	799b      	ldrb	r3, [r3, #6]
 800121c:	2b31      	cmp	r3, #49	; 0x31
 800121e:	d102      	bne.n	8001226 <USART2_IRQHandler+0x19e>
					flag_band = 15; //15m 21000-21450 kHz
 8001220:	4b20      	ldr	r3, [pc, #128]	; (80012a4 <USART2_IRQHandler+0x21c>)
 8001222:	220f      	movs	r2, #15
 8001224:	601a      	str	r2, [r3, #0]
				if ((TRXData[5] == '2') && (TRXData[6] == '4')
 8001226:	4b1d      	ldr	r3, [pc, #116]	; (800129c <USART2_IRQHandler+0x214>)
 8001228:	795b      	ldrb	r3, [r3, #5]
 800122a:	2b32      	cmp	r3, #50	; 0x32
 800122c:	d10e      	bne.n	800124c <USART2_IRQHandler+0x1c4>
 800122e:	4b1b      	ldr	r3, [pc, #108]	; (800129c <USART2_IRQHandler+0x214>)
 8001230:	799b      	ldrb	r3, [r3, #6]
 8001232:	2b34      	cmp	r3, #52	; 0x34
 8001234:	d10a      	bne.n	800124c <USART2_IRQHandler+0x1c4>
						&& ((TRXData[7] == '8') || (TRXData[7] == '9')))
 8001236:	4b19      	ldr	r3, [pc, #100]	; (800129c <USART2_IRQHandler+0x214>)
 8001238:	79db      	ldrb	r3, [r3, #7]
 800123a:	2b38      	cmp	r3, #56	; 0x38
 800123c:	d003      	beq.n	8001246 <USART2_IRQHandler+0x1be>
 800123e:	4b17      	ldr	r3, [pc, #92]	; (800129c <USART2_IRQHandler+0x214>)
 8001240:	79db      	ldrb	r3, [r3, #7]
 8001242:	2b39      	cmp	r3, #57	; 0x39
 8001244:	d102      	bne.n	800124c <USART2_IRQHandler+0x1c4>
					flag_band = 12; //12m 24890-24950 kHz
 8001246:	4b17      	ldr	r3, [pc, #92]	; (80012a4 <USART2_IRQHandler+0x21c>)
 8001248:	220c      	movs	r2, #12
 800124a:	601a      	str	r2, [r3, #0]
				if ((TRXData[5] == '2')
 800124c:	4b13      	ldr	r3, [pc, #76]	; (800129c <USART2_IRQHandler+0x214>)
 800124e:	795b      	ldrb	r3, [r3, #5]
 8001250:	2b32      	cmp	r3, #50	; 0x32
 8001252:	d10a      	bne.n	800126a <USART2_IRQHandler+0x1e2>
						&& ((TRXData[6] == '8') || (TRXData[6] == '9')))
 8001254:	4b11      	ldr	r3, [pc, #68]	; (800129c <USART2_IRQHandler+0x214>)
 8001256:	799b      	ldrb	r3, [r3, #6]
 8001258:	2b38      	cmp	r3, #56	; 0x38
 800125a:	d003      	beq.n	8001264 <USART2_IRQHandler+0x1dc>
 800125c:	4b0f      	ldr	r3, [pc, #60]	; (800129c <USART2_IRQHandler+0x214>)
 800125e:	799b      	ldrb	r3, [r3, #6]
 8001260:	2b39      	cmp	r3, #57	; 0x39
 8001262:	d102      	bne.n	800126a <USART2_IRQHandler+0x1e2>
					flag_band = 10; //10m 28000-29900 kHz
 8001264:	4b0f      	ldr	r3, [pc, #60]	; (80012a4 <USART2_IRQHandler+0x21c>)
 8001266:	220a      	movs	r2, #10
 8001268:	601a      	str	r2, [r3, #0]
				if ((TRXData[5] == '5') && (TRXData[6] == '0'))
 800126a:	4b0c      	ldr	r3, [pc, #48]	; (800129c <USART2_IRQHandler+0x214>)
 800126c:	795b      	ldrb	r3, [r3, #5]
 800126e:	2b35      	cmp	r3, #53	; 0x35
 8001270:	d106      	bne.n	8001280 <USART2_IRQHandler+0x1f8>
 8001272:	4b0a      	ldr	r3, [pc, #40]	; (800129c <USART2_IRQHandler+0x214>)
 8001274:	799b      	ldrb	r3, [r3, #6]
 8001276:	2b30      	cmp	r3, #48	; 0x30
 8001278:	d102      	bne.n	8001280 <USART2_IRQHandler+0x1f8>
					flag_band = 6; //6m 50100-50400 kHz
 800127a:	4b0a      	ldr	r3, [pc, #40]	; (80012a4 <USART2_IRQHandler+0x21c>)
 800127c:	2206      	movs	r2, #6
 800127e:	601a      	str	r2, [r3, #0]
			}

		}
		LL_USART_EnableIT_RXNE(USART1);
 8001280:	4b04      	ldr	r3, [pc, #16]	; (8001294 <USART2_IRQHandler+0x20c>)
 8001282:	0018      	movs	r0, r3
 8001284:	f7ff fe00 	bl	8000e88 <LL_USART_EnableIT_RXNE_RXFNE>
	}
  /* USER CODE END USART2_IRQn 0 */
  /* USER CODE BEGIN USART2_IRQn 1 */

  /* USER CODE END USART2_IRQn 1 */
}
 8001288:	46c0      	nop			; (mov r8, r8)
 800128a:	46bd      	mov	sp, r7
 800128c:	b003      	add	sp, #12
 800128e:	bd90      	pop	{r4, r7, pc}
 8001290:	40004400 	.word	0x40004400
 8001294:	40013800 	.word	0x40013800
 8001298:	20000085 	.word	0x20000085
 800129c:	2000005c 	.word	0x2000005c
 80012a0:	2000002c 	.word	0x2000002c
 80012a4:	20000028 	.word	0x20000028

080012a8 <SystemInit>:
  * @brief  Setup the microcontroller system.
  * @param  None
  * @retval None
  */
void SystemInit(void)
{
 80012a8:	b580      	push	{r7, lr}
 80012aa:	af00      	add	r7, sp, #0
  /* Configure the Vector Table location -------------------------------------*/
#if defined(USER_VECT_TAB_ADDRESS)
  SCB->VTOR = VECT_TAB_BASE_ADDRESS | VECT_TAB_OFFSET; /* Vector Table Relocation */
#endif /* USER_VECT_TAB_ADDRESS */
}
 80012ac:	46c0      	nop			; (mov r8, r8)
 80012ae:	46bd      	mov	sp, r7
 80012b0:	bd80      	pop	{r7, pc}
	...

080012b4 <Reset_Handler>:

  .section .text.Reset_Handler
  .weak Reset_Handler
  .type Reset_Handler, %function
Reset_Handler:
  ldr   r0, =_estack
 80012b4:	480d      	ldr	r0, [pc, #52]	; (80012ec <LoopForever+0x2>)
  mov   sp, r0          /* set stack pointer */
 80012b6:	4685      	mov	sp, r0

/* Call the clock system initialization function.*/
  bl  SystemInit
 80012b8:	f7ff fff6 	bl	80012a8 <SystemInit>

/* Copy the data segment initializers from flash to SRAM */
  ldr r0, =_sdata
 80012bc:	480c      	ldr	r0, [pc, #48]	; (80012f0 <LoopForever+0x6>)
  ldr r1, =_edata
 80012be:	490d      	ldr	r1, [pc, #52]	; (80012f4 <LoopForever+0xa>)
  ldr r2, =_sidata
 80012c0:	4a0d      	ldr	r2, [pc, #52]	; (80012f8 <LoopForever+0xe>)
  movs r3, #0
 80012c2:	2300      	movs	r3, #0
  b LoopCopyDataInit
 80012c4:	e002      	b.n	80012cc <LoopCopyDataInit>

080012c6 <CopyDataInit>:

CopyDataInit:
  ldr r4, [r2, r3]
 80012c6:	58d4      	ldr	r4, [r2, r3]
  str r4, [r0, r3]
 80012c8:	50c4      	str	r4, [r0, r3]
  adds r3, r3, #4
 80012ca:	3304      	adds	r3, #4

080012cc <LoopCopyDataInit>:

LoopCopyDataInit:
  adds r4, r0, r3
 80012cc:	18c4      	adds	r4, r0, r3
  cmp r4, r1
 80012ce:	428c      	cmp	r4, r1
  bcc CopyDataInit
 80012d0:	d3f9      	bcc.n	80012c6 <CopyDataInit>

/* Zero fill the bss segment. */
  ldr r2, =_sbss
 80012d2:	4a0a      	ldr	r2, [pc, #40]	; (80012fc <LoopForever+0x12>)
  ldr r4, =_ebss
 80012d4:	4c0a      	ldr	r4, [pc, #40]	; (8001300 <LoopForever+0x16>)
  movs r3, #0
 80012d6:	2300      	movs	r3, #0
  b LoopFillZerobss
 80012d8:	e001      	b.n	80012de <LoopFillZerobss>

080012da <FillZerobss>:

FillZerobss:
  str  r3, [r2]
 80012da:	6013      	str	r3, [r2, #0]
  adds r2, r2, #4
 80012dc:	3204      	adds	r2, #4

080012de <LoopFillZerobss>:

LoopFillZerobss:
  cmp r2, r4
 80012de:	42a2      	cmp	r2, r4
  bcc FillZerobss
 80012e0:	d3fb      	bcc.n	80012da <FillZerobss>

/* Call static constructors */
  bl __libc_init_array
 80012e2:	f001 fbcf 	bl	8002a84 <__libc_init_array>
/* Call the application s entry point.*/
  bl main
 80012e6:	f7ff fa5f 	bl	80007a8 <main>

080012ea <LoopForever>:

LoopForever:
  b LoopForever
 80012ea:	e7fe      	b.n	80012ea <LoopForever>
  ldr   r0, =_estack
 80012ec:	20002000 	.word	0x20002000
  ldr r0, =_sdata
 80012f0:	20000000 	.word	0x20000000
  ldr r1, =_edata
 80012f4:	2000000c 	.word	0x2000000c
  ldr r2, =_sidata
 80012f8:	08002b80 	.word	0x08002b80
  ldr r2, =_sbss
 80012fc:	2000000c 	.word	0x2000000c
  ldr r4, =_ebss
 8001300:	2000008c 	.word	0x2000008c

08001304 <ADC1_IRQHandler>:
 * @retval None
*/
  .section .text.Default_Handler,"ax",%progbits
Default_Handler:
Infinite_Loop:
  b Infinite_Loop
 8001304:	e7fe      	b.n	8001304 <ADC1_IRQHandler>
	...

08001308 <HAL_Init>:
  *         each 1ms in the SysTick_Handler() interrupt handler.
  *
  * @retval HAL status
  */
HAL_StatusTypeDef HAL_Init(void)
{
 8001308:	b580      	push	{r7, lr}
 800130a:	b082      	sub	sp, #8
 800130c:	af00      	add	r7, sp, #0
  HAL_StatusTypeDef  status = HAL_OK;
 800130e:	1dfb      	adds	r3, r7, #7
 8001310:	2200      	movs	r2, #0
 8001312:	701a      	strb	r2, [r3, #0]
#if (INSTRUCTION_CACHE_ENABLE == 0U)
  __HAL_FLASH_INSTRUCTION_CACHE_DISABLE();
#endif /* INSTRUCTION_CACHE_ENABLE */

#if (PREFETCH_ENABLE != 0U)
  __HAL_FLASH_PREFETCH_BUFFER_ENABLE();
 8001314:	4b0b      	ldr	r3, [pc, #44]	; (8001344 <HAL_Init+0x3c>)
 8001316:	681a      	ldr	r2, [r3, #0]
 8001318:	4b0a      	ldr	r3, [pc, #40]	; (8001344 <HAL_Init+0x3c>)
 800131a:	2180      	movs	r1, #128	; 0x80
 800131c:	0049      	lsls	r1, r1, #1
 800131e:	430a      	orrs	r2, r1
 8001320:	601a      	str	r2, [r3, #0]
#endif /* PREFETCH_ENABLE */

  /* Use SysTick as time base source and configure 1ms tick (default clock after Reset is HSI) */
  if (HAL_InitTick(TICK_INT_PRIORITY) != HAL_OK)
 8001322:	2003      	movs	r0, #3
 8001324:	f000 f810 	bl	8001348 <HAL_InitTick>
 8001328:	1e03      	subs	r3, r0, #0
 800132a:	d003      	beq.n	8001334 <HAL_Init+0x2c>
  {
    status = HAL_ERROR;
 800132c:	1dfb      	adds	r3, r7, #7
 800132e:	2201      	movs	r2, #1
 8001330:	701a      	strb	r2, [r3, #0]
 8001332:	e001      	b.n	8001338 <HAL_Init+0x30>
  }
  else
  {
  /* Init the low level hardware */
  HAL_MspInit();
 8001334:	f7ff fd56 	bl	8000de4 <HAL_MspInit>
  }

  /* Return function status */
  return status;
 8001338:	1dfb      	adds	r3, r7, #7
 800133a:	781b      	ldrb	r3, [r3, #0]
}
 800133c:	0018      	movs	r0, r3
 800133e:	46bd      	mov	sp, r7
 8001340:	b002      	add	sp, #8
 8001342:	bd80      	pop	{r7, pc}
 8001344:	40022000 	.word	0x40022000

08001348 <HAL_InitTick>:
  *       implementation  in user file.
  * @param TickPriority Tick interrupt priority.
  * @retval HAL status
  */
__weak HAL_StatusTypeDef HAL_InitTick(uint32_t TickPriority)
{
 8001348:	b590      	push	{r4, r7, lr}
 800134a:	b085      	sub	sp, #20
 800134c:	af00      	add	r7, sp, #0
 800134e:	6078      	str	r0, [r7, #4]
  HAL_StatusTypeDef  status = HAL_OK;
 8001350:	230f      	movs	r3, #15
 8001352:	18fb      	adds	r3, r7, r3
 8001354:	2200      	movs	r2, #0
 8001356:	701a      	strb	r2, [r3, #0]

  /* Check uwTickFreq for MisraC 2012 (even if uwTickFreq is a enum type that doesn't take the value zero)*/ 
  if ((uint32_t)uwTickFreq != 0U)
 8001358:	4b1d      	ldr	r3, [pc, #116]	; (80013d0 <HAL_InitTick+0x88>)
 800135a:	781b      	ldrb	r3, [r3, #0]
 800135c:	2b00      	cmp	r3, #0
 800135e:	d02b      	beq.n	80013b8 <HAL_InitTick+0x70>
  {
    /*Configure the SysTick to have interrupt in 1ms time basis*/
    if (HAL_SYSTICK_Config(SystemCoreClock / (1000U /(uint32_t)uwTickFreq)) == 0U)
 8001360:	4b1c      	ldr	r3, [pc, #112]	; (80013d4 <HAL_InitTick+0x8c>)
 8001362:	681c      	ldr	r4, [r3, #0]
 8001364:	4b1a      	ldr	r3, [pc, #104]	; (80013d0 <HAL_InitTick+0x88>)
 8001366:	781b      	ldrb	r3, [r3, #0]
 8001368:	0019      	movs	r1, r3
 800136a:	23fa      	movs	r3, #250	; 0xfa
 800136c:	0098      	lsls	r0, r3, #2
 800136e:	f7fe fec7 	bl	8000100 <__udivsi3>
 8001372:	0003      	movs	r3, r0
 8001374:	0019      	movs	r1, r3
 8001376:	0020      	movs	r0, r4
 8001378:	f7fe fec2 	bl	8000100 <__udivsi3>
 800137c:	0003      	movs	r3, r0
 800137e:	0018      	movs	r0, r3
 8001380:	f000 f8ef 	bl	8001562 <HAL_SYSTICK_Config>
 8001384:	1e03      	subs	r3, r0, #0
 8001386:	d112      	bne.n	80013ae <HAL_InitTick+0x66>
    {
      /* Configure the SysTick IRQ priority */
      if (TickPriority < (1UL << __NVIC_PRIO_BITS))
 8001388:	687b      	ldr	r3, [r7, #4]
 800138a:	2b03      	cmp	r3, #3
 800138c:	d80a      	bhi.n	80013a4 <HAL_InitTick+0x5c>
      {
        HAL_NVIC_SetPriority(SysTick_IRQn, TickPriority, 0U);
 800138e:	6879      	ldr	r1, [r7, #4]
 8001390:	2301      	movs	r3, #1
 8001392:	425b      	negs	r3, r3
 8001394:	2200      	movs	r2, #0
 8001396:	0018      	movs	r0, r3
 8001398:	f000 f8ce 	bl	8001538 <HAL_NVIC_SetPriority>
        uwTickPrio = TickPriority;
 800139c:	4b0e      	ldr	r3, [pc, #56]	; (80013d8 <HAL_InitTick+0x90>)
 800139e:	687a      	ldr	r2, [r7, #4]
 80013a0:	601a      	str	r2, [r3, #0]
 80013a2:	e00d      	b.n	80013c0 <HAL_InitTick+0x78>
      }
      else
      {
        status = HAL_ERROR;
 80013a4:	230f      	movs	r3, #15
 80013a6:	18fb      	adds	r3, r7, r3
 80013a8:	2201      	movs	r2, #1
 80013aa:	701a      	strb	r2, [r3, #0]
 80013ac:	e008      	b.n	80013c0 <HAL_InitTick+0x78>
      }
    }
    else
    {
      status = HAL_ERROR;
 80013ae:	230f      	movs	r3, #15
 80013b0:	18fb      	adds	r3, r7, r3
 80013b2:	2201      	movs	r2, #1
 80013b4:	701a      	strb	r2, [r3, #0]
 80013b6:	e003      	b.n	80013c0 <HAL_InitTick+0x78>
    }
  }
  else
  {
    status = HAL_ERROR;
 80013b8:	230f      	movs	r3, #15
 80013ba:	18fb      	adds	r3, r7, r3
 80013bc:	2201      	movs	r2, #1
 80013be:	701a      	strb	r2, [r3, #0]
  }

  /* Return function status */
  return status;
 80013c0:	230f      	movs	r3, #15
 80013c2:	18fb      	adds	r3, r7, r3
 80013c4:	781b      	ldrb	r3, [r3, #0]
}
 80013c6:	0018      	movs	r0, r3
 80013c8:	46bd      	mov	sp, r7
 80013ca:	b005      	add	sp, #20
 80013cc:	bd90      	pop	{r4, r7, pc}
 80013ce:	46c0      	nop			; (mov r8, r8)
 80013d0:	20000008 	.word	0x20000008
 80013d4:	20000000 	.word	0x20000000
 80013d8:	20000004 	.word	0x20000004

080013dc <HAL_IncTick>:
  * @note This function is declared as __weak to be overwritten in case of other
  *      implementations in user file.
  * @retval None
  */
__weak void HAL_IncTick(void)
{
 80013dc:	b580      	push	{r7, lr}
 80013de:	af00      	add	r7, sp, #0
  uwTick += (uint32_t)uwTickFreq;
 80013e0:	4b05      	ldr	r3, [pc, #20]	; (80013f8 <HAL_IncTick+0x1c>)
 80013e2:	781b      	ldrb	r3, [r3, #0]
 80013e4:	001a      	movs	r2, r3
 80013e6:	4b05      	ldr	r3, [pc, #20]	; (80013fc <HAL_IncTick+0x20>)
 80013e8:	681b      	ldr	r3, [r3, #0]
 80013ea:	18d2      	adds	r2, r2, r3
 80013ec:	4b03      	ldr	r3, [pc, #12]	; (80013fc <HAL_IncTick+0x20>)
 80013ee:	601a      	str	r2, [r3, #0]
}
 80013f0:	46c0      	nop			; (mov r8, r8)
 80013f2:	46bd      	mov	sp, r7
 80013f4:	bd80      	pop	{r7, pc}
 80013f6:	46c0      	nop			; (mov r8, r8)
 80013f8:	20000008 	.word	0x20000008
 80013fc:	20000088 	.word	0x20000088

08001400 <HAL_GetTick>:
  * @note This function is declared as __weak to be overwritten in case of other
  *       implementations in user file.
  * @retval tick value
  */
__weak uint32_t HAL_GetTick(void)
{
 8001400:	b580      	push	{r7, lr}
 8001402:	af00      	add	r7, sp, #0
  return uwTick;
 8001404:	4b02      	ldr	r3, [pc, #8]	; (8001410 <HAL_GetTick+0x10>)
 8001406:	681b      	ldr	r3, [r3, #0]
}
 8001408:	0018      	movs	r0, r3
 800140a:	46bd      	mov	sp, r7
 800140c:	bd80      	pop	{r7, pc}
 800140e:	46c0      	nop			; (mov r8, r8)
 8001410:	20000088 	.word	0x20000088

08001414 <__NVIC_SetPriority>:
{
 8001414:	b590      	push	{r4, r7, lr}
 8001416:	b083      	sub	sp, #12
 8001418:	af00      	add	r7, sp, #0
 800141a:	0002      	movs	r2, r0
 800141c:	6039      	str	r1, [r7, #0]
 800141e:	1dfb      	adds	r3, r7, #7
 8001420:	701a      	strb	r2, [r3, #0]
  if ((int32_t)(IRQn) >= 0)
 8001422:	1dfb      	adds	r3, r7, #7
 8001424:	781b      	ldrb	r3, [r3, #0]
 8001426:	2b7f      	cmp	r3, #127	; 0x7f
 8001428:	d828      	bhi.n	800147c <__NVIC_SetPriority+0x68>
    NVIC->IP[_IP_IDX(IRQn)]  = ((uint32_t)(NVIC->IP[_IP_IDX(IRQn)]  & ~(0xFFUL << _BIT_SHIFT(IRQn))) |
 800142a:	4a2f      	ldr	r2, [pc, #188]	; (80014e8 <__NVIC_SetPriority+0xd4>)
 800142c:	1dfb      	adds	r3, r7, #7
 800142e:	781b      	ldrb	r3, [r3, #0]
 8001430:	b25b      	sxtb	r3, r3
 8001432:	089b      	lsrs	r3, r3, #2
 8001434:	33c0      	adds	r3, #192	; 0xc0
 8001436:	009b      	lsls	r3, r3, #2
 8001438:	589b      	ldr	r3, [r3, r2]
 800143a:	1dfa      	adds	r2, r7, #7
 800143c:	7812      	ldrb	r2, [r2, #0]
 800143e:	0011      	movs	r1, r2
 8001440:	2203      	movs	r2, #3
 8001442:	400a      	ands	r2, r1
 8001444:	00d2      	lsls	r2, r2, #3
 8001446:	21ff      	movs	r1, #255	; 0xff
 8001448:	4091      	lsls	r1, r2
 800144a:	000a      	movs	r2, r1
 800144c:	43d2      	mvns	r2, r2
 800144e:	401a      	ands	r2, r3
 8001450:	0011      	movs	r1, r2
       (((priority << (8U - __NVIC_PRIO_BITS)) & (uint32_t)0xFFUL) << _BIT_SHIFT(IRQn)));
 8001452:	683b      	ldr	r3, [r7, #0]
 8001454:	019b      	lsls	r3, r3, #6
 8001456:	22ff      	movs	r2, #255	; 0xff
 8001458:	401a      	ands	r2, r3
 800145a:	1dfb      	adds	r3, r7, #7
 800145c:	781b      	ldrb	r3, [r3, #0]
 800145e:	0018      	movs	r0, r3
 8001460:	2303      	movs	r3, #3
 8001462:	4003      	ands	r3, r0
 8001464:	00db      	lsls	r3, r3, #3
 8001466:	409a      	lsls	r2, r3
    NVIC->IP[_IP_IDX(IRQn)]  = ((uint32_t)(NVIC->IP[_IP_IDX(IRQn)]  & ~(0xFFUL << _BIT_SHIFT(IRQn))) |
 8001468:	481f      	ldr	r0, [pc, #124]	; (80014e8 <__NVIC_SetPriority+0xd4>)
 800146a:	1dfb      	adds	r3, r7, #7
 800146c:	781b      	ldrb	r3, [r3, #0]
 800146e:	b25b      	sxtb	r3, r3
 8001470:	089b      	lsrs	r3, r3, #2
 8001472:	430a      	orrs	r2, r1
 8001474:	33c0      	adds	r3, #192	; 0xc0
 8001476:	009b      	lsls	r3, r3, #2
 8001478:	501a      	str	r2, [r3, r0]
}
 800147a:	e031      	b.n	80014e0 <__NVIC_SetPriority+0xcc>
    SCB->SHP[_SHP_IDX(IRQn)] = ((uint32_t)(SCB->SHP[_SHP_IDX(IRQn)] & ~(0xFFUL << _BIT_SHIFT(IRQn))) |
 800147c:	4a1b      	ldr	r2, [pc, #108]	; (80014ec <__NVIC_SetPriority+0xd8>)
 800147e:	1dfb      	adds	r3, r7, #7
 8001480:	781b      	ldrb	r3, [r3, #0]
 8001482:	0019      	movs	r1, r3
 8001484:	230f      	movs	r3, #15
 8001486:	400b      	ands	r3, r1
 8001488:	3b08      	subs	r3, #8
 800148a:	089b      	lsrs	r3, r3, #2
 800148c:	3306      	adds	r3, #6
 800148e:	009b      	lsls	r3, r3, #2
 8001490:	18d3      	adds	r3, r2, r3
 8001492:	3304      	adds	r3, #4
 8001494:	681b      	ldr	r3, [r3, #0]
 8001496:	1dfa      	adds	r2, r7, #7
 8001498:	7812      	ldrb	r2, [r2, #0]
 800149a:	0011      	movs	r1, r2
 800149c:	2203      	movs	r2, #3
 800149e:	400a      	ands	r2, r1
 80014a0:	00d2      	lsls	r2, r2, #3
 80014a2:	21ff      	movs	r1, #255	; 0xff
 80014a4:	4091      	lsls	r1, r2
 80014a6:	000a      	movs	r2, r1
 80014a8:	43d2      	mvns	r2, r2
 80014aa:	401a      	ands	r2, r3
 80014ac:	0011      	movs	r1, r2
       (((priority << (8U - __NVIC_PRIO_BITS)) & (uint32_t)0xFFUL) << _BIT_SHIFT(IRQn)));
 80014ae:	683b      	ldr	r3, [r7, #0]
 80014b0:	019b      	lsls	r3, r3, #6
 80014b2:	22ff      	movs	r2, #255	; 0xff
 80014b4:	401a      	ands	r2, r3
 80014b6:	1dfb      	adds	r3, r7, #7
 80014b8:	781b      	ldrb	r3, [r3, #0]
 80014ba:	0018      	movs	r0, r3
 80014bc:	2303      	movs	r3, #3
 80014be:	4003      	ands	r3, r0
 80014c0:	00db      	lsls	r3, r3, #3
 80014c2:	409a      	lsls	r2, r3
    SCB->SHP[_SHP_IDX(IRQn)] = ((uint32_t)(SCB->SHP[_SHP_IDX(IRQn)] & ~(0xFFUL << _BIT_SHIFT(IRQn))) |
 80014c4:	4809      	ldr	r0, [pc, #36]	; (80014ec <__NVIC_SetPriority+0xd8>)
 80014c6:	1dfb      	adds	r3, r7, #7
 80014c8:	781b      	ldrb	r3, [r3, #0]
 80014ca:	001c      	movs	r4, r3
 80014cc:	230f      	movs	r3, #15
 80014ce:	4023      	ands	r3, r4
 80014d0:	3b08      	subs	r3, #8
 80014d2:	089b      	lsrs	r3, r3, #2
 80014d4:	430a      	orrs	r2, r1
 80014d6:	3306      	adds	r3, #6
 80014d8:	009b      	lsls	r3, r3, #2
 80014da:	18c3      	adds	r3, r0, r3
 80014dc:	3304      	adds	r3, #4
 80014de:	601a      	str	r2, [r3, #0]
}
 80014e0:	46c0      	nop			; (mov r8, r8)
 80014e2:	46bd      	mov	sp, r7
 80014e4:	b003      	add	sp, #12
 80014e6:	bd90      	pop	{r4, r7, pc}
 80014e8:	e000e100 	.word	0xe000e100
 80014ec:	e000ed00 	.word	0xe000ed00

080014f0 <SysTick_Config>:
  \note    When the variable <b>__Vendor_SysTickConfig</b> is set to 1, then the
           function <b>SysTick_Config</b> is not included. In this case, the file <b><i>device</i>.h</b>
           must contain a vendor-specific implementation of this function.
 */
__STATIC_INLINE uint32_t SysTick_Config(uint32_t ticks)
{
 80014f0:	b580      	push	{r7, lr}
 80014f2:	b082      	sub	sp, #8
 80014f4:	af00      	add	r7, sp, #0
 80014f6:	6078      	str	r0, [r7, #4]
  if ((ticks - 1UL) > SysTick_LOAD_RELOAD_Msk)
 80014f8:	687b      	ldr	r3, [r7, #4]
 80014fa:	1e5a      	subs	r2, r3, #1
 80014fc:	2380      	movs	r3, #128	; 0x80
 80014fe:	045b      	lsls	r3, r3, #17
 8001500:	429a      	cmp	r2, r3
 8001502:	d301      	bcc.n	8001508 <SysTick_Config+0x18>
  {
    return (1UL);                                                   /* Reload value impossible */
 8001504:	2301      	movs	r3, #1
 8001506:	e010      	b.n	800152a <SysTick_Config+0x3a>
  }

  SysTick->LOAD  = (uint32_t)(ticks - 1UL);                         /* set reload register */
 8001508:	4b0a      	ldr	r3, [pc, #40]	; (8001534 <SysTick_Config+0x44>)
 800150a:	687a      	ldr	r2, [r7, #4]
 800150c:	3a01      	subs	r2, #1
 800150e:	605a      	str	r2, [r3, #4]
  NVIC_SetPriority (SysTick_IRQn, (1UL << __NVIC_PRIO_BITS) - 1UL); /* set Priority for Systick Interrupt */
 8001510:	2301      	movs	r3, #1
 8001512:	425b      	negs	r3, r3
 8001514:	2103      	movs	r1, #3
 8001516:	0018      	movs	r0, r3
 8001518:	f7ff ff7c 	bl	8001414 <__NVIC_SetPriority>
  SysTick->VAL   = 0UL;                                             /* Load the SysTick Counter Value */
 800151c:	4b05      	ldr	r3, [pc, #20]	; (8001534 <SysTick_Config+0x44>)
 800151e:	2200      	movs	r2, #0
 8001520:	609a      	str	r2, [r3, #8]
  SysTick->CTRL  = SysTick_CTRL_CLKSOURCE_Msk |
 8001522:	4b04      	ldr	r3, [pc, #16]	; (8001534 <SysTick_Config+0x44>)
 8001524:	2207      	movs	r2, #7
 8001526:	601a      	str	r2, [r3, #0]
                   SysTick_CTRL_TICKINT_Msk   |
                   SysTick_CTRL_ENABLE_Msk;                         /* Enable SysTick IRQ and SysTick Timer */
  return (0UL);                                                     /* Function successful */
 8001528:	2300      	movs	r3, #0
}
 800152a:	0018      	movs	r0, r3
 800152c:	46bd      	mov	sp, r7
 800152e:	b002      	add	sp, #8
 8001530:	bd80      	pop	{r7, pc}
 8001532:	46c0      	nop			; (mov r8, r8)
 8001534:	e000e010 	.word	0xe000e010

08001538 <HAL_NVIC_SetPriority>:
  *         with stm32g0xx devices, this parameter is a dummy value and it is ignored, because
  *         no subpriority supported in Cortex M0+ based products.
  * @retval None
  */
void HAL_NVIC_SetPriority(IRQn_Type IRQn, uint32_t PreemptPriority, uint32_t SubPriority)
{
 8001538:	b580      	push	{r7, lr}
 800153a:	b084      	sub	sp, #16
 800153c:	af00      	add	r7, sp, #0
 800153e:	60b9      	str	r1, [r7, #8]
 8001540:	607a      	str	r2, [r7, #4]
 8001542:	210f      	movs	r1, #15
 8001544:	187b      	adds	r3, r7, r1
 8001546:	1c02      	adds	r2, r0, #0
 8001548:	701a      	strb	r2, [r3, #0]
  /* Prevent unused argument(s) compilation warning */
  UNUSED(SubPriority);

  /* Check the parameters */
  assert_param(IS_NVIC_PREEMPTION_PRIORITY(PreemptPriority));
  NVIC_SetPriority(IRQn, PreemptPriority);
 800154a:	68ba      	ldr	r2, [r7, #8]
 800154c:	187b      	adds	r3, r7, r1
 800154e:	781b      	ldrb	r3, [r3, #0]
 8001550:	b25b      	sxtb	r3, r3
 8001552:	0011      	movs	r1, r2
 8001554:	0018      	movs	r0, r3
 8001556:	f7ff ff5d 	bl	8001414 <__NVIC_SetPriority>
}
 800155a:	46c0      	nop			; (mov r8, r8)
 800155c:	46bd      	mov	sp, r7
 800155e:	b004      	add	sp, #16
 8001560:	bd80      	pop	{r7, pc}

08001562 <HAL_SYSTICK_Config>:
  * @param  TicksNumb Specifies the ticks Number of ticks between two interrupts.
  * @retval status:  - 0  Function succeeded.
  *                  - 1  Function failed.
  */
uint32_t HAL_SYSTICK_Config(uint32_t TicksNumb)
{
 8001562:	b580      	push	{r7, lr}
 8001564:	b082      	sub	sp, #8
 8001566:	af00      	add	r7, sp, #0
 8001568:	6078      	str	r0, [r7, #4]
  return SysTick_Config(TicksNumb);
 800156a:	687b      	ldr	r3, [r7, #4]
 800156c:	0018      	movs	r0, r3
 800156e:	f7ff ffbf 	bl	80014f0 <SysTick_Config>
 8001572:	0003      	movs	r3, r0
}
 8001574:	0018      	movs	r0, r3
 8001576:	46bd      	mov	sp, r7
 8001578:	b002      	add	sp, #8
 800157a:	bd80      	pop	{r7, pc}

0800157c <HAL_PWREx_ControlVoltageScaling>:
  *        cleared before returning the status. If the flag is not cleared within
  *        6 microseconds, HAL_TIMEOUT status is reported.
  * @retval HAL Status
  */
HAL_StatusTypeDef HAL_PWREx_ControlVoltageScaling(uint32_t VoltageScaling)
{
 800157c:	b580      	push	{r7, lr}
 800157e:	b084      	sub	sp, #16
 8001580:	af00      	add	r7, sp, #0
 8001582:	6078      	str	r0, [r7, #4]
  uint32_t wait_loop_index;

  assert_param(IS_PWR_VOLTAGE_SCALING_RANGE(VoltageScaling));

  /* Modify voltage scaling range */
  MODIFY_REG(PWR->CR1, PWR_CR1_VOS, VoltageScaling);
 8001584:	4b19      	ldr	r3, [pc, #100]	; (80015ec <HAL_PWREx_ControlVoltageScaling+0x70>)
 8001586:	681b      	ldr	r3, [r3, #0]
 8001588:	4a19      	ldr	r2, [pc, #100]	; (80015f0 <HAL_PWREx_ControlVoltageScaling+0x74>)
 800158a:	4013      	ands	r3, r2
 800158c:	0019      	movs	r1, r3
 800158e:	4b17      	ldr	r3, [pc, #92]	; (80015ec <HAL_PWREx_ControlVoltageScaling+0x70>)
 8001590:	687a      	ldr	r2, [r7, #4]
 8001592:	430a      	orrs	r2, r1
 8001594:	601a      	str	r2, [r3, #0]

  /* In case of Range 1 selected, we need to ensure that main regulator reaches new value */
  if (VoltageScaling == PWR_REGULATOR_VOLTAGE_SCALE1)
 8001596:	687a      	ldr	r2, [r7, #4]
 8001598:	2380      	movs	r3, #128	; 0x80
 800159a:	009b      	lsls	r3, r3, #2
 800159c:	429a      	cmp	r2, r3
 800159e:	d11f      	bne.n	80015e0 <HAL_PWREx_ControlVoltageScaling+0x64>
  {
    /* Set timeout value */
    wait_loop_index = ((PWR_VOSF_SETTING_DELAY_6_US * SystemCoreClock) / 1000000U) + 1U;
 80015a0:	4b14      	ldr	r3, [pc, #80]	; (80015f4 <HAL_PWREx_ControlVoltageScaling+0x78>)
 80015a2:	681a      	ldr	r2, [r3, #0]
 80015a4:	0013      	movs	r3, r2
 80015a6:	005b      	lsls	r3, r3, #1
 80015a8:	189b      	adds	r3, r3, r2
 80015aa:	005b      	lsls	r3, r3, #1
 80015ac:	4912      	ldr	r1, [pc, #72]	; (80015f8 <HAL_PWREx_ControlVoltageScaling+0x7c>)
 80015ae:	0018      	movs	r0, r3
 80015b0:	f7fe fda6 	bl	8000100 <__udivsi3>
 80015b4:	0003      	movs	r3, r0
 80015b6:	3301      	adds	r3, #1
 80015b8:	60fb      	str	r3, [r7, #12]

    /* Wait until VOSF is reset */
    while (HAL_IS_BIT_SET(PWR->SR2, PWR_SR2_VOSF))
 80015ba:	e008      	b.n	80015ce <HAL_PWREx_ControlVoltageScaling+0x52>
    {
      if (wait_loop_index != 0U)
 80015bc:	68fb      	ldr	r3, [r7, #12]
 80015be:	2b00      	cmp	r3, #0
 80015c0:	d003      	beq.n	80015ca <HAL_PWREx_ControlVoltageScaling+0x4e>
      {
        wait_loop_index--;
 80015c2:	68fb      	ldr	r3, [r7, #12]
 80015c4:	3b01      	subs	r3, #1
 80015c6:	60fb      	str	r3, [r7, #12]
 80015c8:	e001      	b.n	80015ce <HAL_PWREx_ControlVoltageScaling+0x52>
      }
      else
      {
        return HAL_TIMEOUT;
 80015ca:	2303      	movs	r3, #3
 80015cc:	e009      	b.n	80015e2 <HAL_PWREx_ControlVoltageScaling+0x66>
    while (HAL_IS_BIT_SET(PWR->SR2, PWR_SR2_VOSF))
 80015ce:	4b07      	ldr	r3, [pc, #28]	; (80015ec <HAL_PWREx_ControlVoltageScaling+0x70>)
 80015d0:	695a      	ldr	r2, [r3, #20]
 80015d2:	2380      	movs	r3, #128	; 0x80
 80015d4:	00db      	lsls	r3, r3, #3
 80015d6:	401a      	ands	r2, r3
 80015d8:	2380      	movs	r3, #128	; 0x80
 80015da:	00db      	lsls	r3, r3, #3
 80015dc:	429a      	cmp	r2, r3
 80015de:	d0ed      	beq.n	80015bc <HAL_PWREx_ControlVoltageScaling+0x40>
      }
    }
  }

  return HAL_OK;
 80015e0:	2300      	movs	r3, #0
}
 80015e2:	0018      	movs	r0, r3
 80015e4:	46bd      	mov	sp, r7
 80015e6:	b004      	add	sp, #16
 80015e8:	bd80      	pop	{r7, pc}
 80015ea:	46c0      	nop			; (mov r8, r8)
 80015ec:	40007000 	.word	0x40007000
 80015f0:	fffff9ff 	.word	0xfffff9ff
 80015f4:	20000000 	.word	0x20000000
 80015f8:	000f4240 	.word	0x000f4240

080015fc <HAL_RCC_OscConfig>:
  *         supported by this function. User should request a transition to LSE Off
  *         first and then to LSE On or LSE Bypass.
  * @retval HAL status
  */
HAL_StatusTypeDef HAL_RCC_OscConfig(RCC_OscInitTypeDef  *RCC_OscInitStruct)
{
 80015fc:	b580      	push	{r7, lr}
 80015fe:	b088      	sub	sp, #32
 8001600:	af00      	add	r7, sp, #0
 8001602:	6078      	str	r0, [r7, #4]
  uint32_t tickstart;
  uint32_t temp_sysclksrc;
  uint32_t temp_pllckcfg;

  /* Check Null pointer */
  if (RCC_OscInitStruct == NULL)
 8001604:	687b      	ldr	r3, [r7, #4]
 8001606:	2b00      	cmp	r3, #0
 8001608:	d101      	bne.n	800160e <HAL_RCC_OscConfig+0x12>
  {
    return HAL_ERROR;
 800160a:	2301      	movs	r3, #1
 800160c:	e2f3      	b.n	8001bf6 <HAL_RCC_OscConfig+0x5fa>

  /* Check the parameters */
  assert_param(IS_RCC_OSCILLATORTYPE(RCC_OscInitStruct->OscillatorType));

  /*------------------------------- HSE Configuration ------------------------*/
  if (((RCC_OscInitStruct->OscillatorType) & RCC_OSCILLATORTYPE_HSE) == RCC_OSCILLATORTYPE_HSE)
 800160e:	687b      	ldr	r3, [r7, #4]
 8001610:	681b      	ldr	r3, [r3, #0]
 8001612:	2201      	movs	r2, #1
 8001614:	4013      	ands	r3, r2
 8001616:	d100      	bne.n	800161a <HAL_RCC_OscConfig+0x1e>
 8001618:	e07c      	b.n	8001714 <HAL_RCC_OscConfig+0x118>
  {
    /* Check the parameters */
    assert_param(IS_RCC_HSE(RCC_OscInitStruct->HSEState));

    temp_sysclksrc = __HAL_RCC_GET_SYSCLK_SOURCE();
 800161a:	4bc3      	ldr	r3, [pc, #780]	; (8001928 <HAL_RCC_OscConfig+0x32c>)
 800161c:	689b      	ldr	r3, [r3, #8]
 800161e:	2238      	movs	r2, #56	; 0x38
 8001620:	4013      	ands	r3, r2
 8001622:	61bb      	str	r3, [r7, #24]
    temp_pllckcfg = __HAL_RCC_GET_PLL_OSCSOURCE();
 8001624:	4bc0      	ldr	r3, [pc, #768]	; (8001928 <HAL_RCC_OscConfig+0x32c>)
 8001626:	68db      	ldr	r3, [r3, #12]
 8001628:	2203      	movs	r2, #3
 800162a:	4013      	ands	r3, r2
 800162c:	617b      	str	r3, [r7, #20]

    /* When the HSE is used as system clock or clock source for PLL in these cases it is not allowed to be disabled */
    if (((temp_sysclksrc == RCC_SYSCLKSOURCE_STATUS_PLLCLK) && (temp_pllckcfg == RCC_PLLSOURCE_HSE))
 800162e:	69bb      	ldr	r3, [r7, #24]
 8001630:	2b10      	cmp	r3, #16
 8001632:	d102      	bne.n	800163a <HAL_RCC_OscConfig+0x3e>
 8001634:	697b      	ldr	r3, [r7, #20]
 8001636:	2b03      	cmp	r3, #3
 8001638:	d002      	beq.n	8001640 <HAL_RCC_OscConfig+0x44>
        || (temp_sysclksrc == RCC_SYSCLKSOURCE_STATUS_HSE))
 800163a:	69bb      	ldr	r3, [r7, #24]
 800163c:	2b08      	cmp	r3, #8
 800163e:	d10b      	bne.n	8001658 <HAL_RCC_OscConfig+0x5c>
    {
      if ((READ_BIT(RCC->CR, RCC_CR_HSERDY) != 0U) && (RCC_OscInitStruct->HSEState == RCC_HSE_OFF))
 8001640:	4bb9      	ldr	r3, [pc, #740]	; (8001928 <HAL_RCC_OscConfig+0x32c>)
 8001642:	681a      	ldr	r2, [r3, #0]
 8001644:	2380      	movs	r3, #128	; 0x80
 8001646:	029b      	lsls	r3, r3, #10
 8001648:	4013      	ands	r3, r2
 800164a:	d062      	beq.n	8001712 <HAL_RCC_OscConfig+0x116>
 800164c:	687b      	ldr	r3, [r7, #4]
 800164e:	685b      	ldr	r3, [r3, #4]
 8001650:	2b00      	cmp	r3, #0
 8001652:	d15e      	bne.n	8001712 <HAL_RCC_OscConfig+0x116>
      {
        return HAL_ERROR;
 8001654:	2301      	movs	r3, #1
 8001656:	e2ce      	b.n	8001bf6 <HAL_RCC_OscConfig+0x5fa>
      }
    }
    else
    {
      /* Set the new HSE configuration ---------------------------------------*/
      __HAL_RCC_HSE_CONFIG(RCC_OscInitStruct->HSEState);
 8001658:	687b      	ldr	r3, [r7, #4]
 800165a:	685a      	ldr	r2, [r3, #4]
 800165c:	2380      	movs	r3, #128	; 0x80
 800165e:	025b      	lsls	r3, r3, #9
 8001660:	429a      	cmp	r2, r3
 8001662:	d107      	bne.n	8001674 <HAL_RCC_OscConfig+0x78>
 8001664:	4bb0      	ldr	r3, [pc, #704]	; (8001928 <HAL_RCC_OscConfig+0x32c>)
 8001666:	681a      	ldr	r2, [r3, #0]
 8001668:	4baf      	ldr	r3, [pc, #700]	; (8001928 <HAL_RCC_OscConfig+0x32c>)
 800166a:	2180      	movs	r1, #128	; 0x80
 800166c:	0249      	lsls	r1, r1, #9
 800166e:	430a      	orrs	r2, r1
 8001670:	601a      	str	r2, [r3, #0]
 8001672:	e020      	b.n	80016b6 <HAL_RCC_OscConfig+0xba>
 8001674:	687b      	ldr	r3, [r7, #4]
 8001676:	685a      	ldr	r2, [r3, #4]
 8001678:	23a0      	movs	r3, #160	; 0xa0
 800167a:	02db      	lsls	r3, r3, #11
 800167c:	429a      	cmp	r2, r3
 800167e:	d10e      	bne.n	800169e <HAL_RCC_OscConfig+0xa2>
 8001680:	4ba9      	ldr	r3, [pc, #676]	; (8001928 <HAL_RCC_OscConfig+0x32c>)
 8001682:	681a      	ldr	r2, [r3, #0]
 8001684:	4ba8      	ldr	r3, [pc, #672]	; (8001928 <HAL_RCC_OscConfig+0x32c>)
 8001686:	2180      	movs	r1, #128	; 0x80
 8001688:	02c9      	lsls	r1, r1, #11
 800168a:	430a      	orrs	r2, r1
 800168c:	601a      	str	r2, [r3, #0]
 800168e:	4ba6      	ldr	r3, [pc, #664]	; (8001928 <HAL_RCC_OscConfig+0x32c>)
 8001690:	681a      	ldr	r2, [r3, #0]
 8001692:	4ba5      	ldr	r3, [pc, #660]	; (8001928 <HAL_RCC_OscConfig+0x32c>)
 8001694:	2180      	movs	r1, #128	; 0x80
 8001696:	0249      	lsls	r1, r1, #9
 8001698:	430a      	orrs	r2, r1
 800169a:	601a      	str	r2, [r3, #0]
 800169c:	e00b      	b.n	80016b6 <HAL_RCC_OscConfig+0xba>
 800169e:	4ba2      	ldr	r3, [pc, #648]	; (8001928 <HAL_RCC_OscConfig+0x32c>)
 80016a0:	681a      	ldr	r2, [r3, #0]
 80016a2:	4ba1      	ldr	r3, [pc, #644]	; (8001928 <HAL_RCC_OscConfig+0x32c>)
 80016a4:	49a1      	ldr	r1, [pc, #644]	; (800192c <HAL_RCC_OscConfig+0x330>)
 80016a6:	400a      	ands	r2, r1
 80016a8:	601a      	str	r2, [r3, #0]
 80016aa:	4b9f      	ldr	r3, [pc, #636]	; (8001928 <HAL_RCC_OscConfig+0x32c>)
 80016ac:	681a      	ldr	r2, [r3, #0]
 80016ae:	4b9e      	ldr	r3, [pc, #632]	; (8001928 <HAL_RCC_OscConfig+0x32c>)
 80016b0:	499f      	ldr	r1, [pc, #636]	; (8001930 <HAL_RCC_OscConfig+0x334>)
 80016b2:	400a      	ands	r2, r1
 80016b4:	601a      	str	r2, [r3, #0]

      /* Check the HSE State */
      if (RCC_OscInitStruct->HSEState != RCC_HSE_OFF)
 80016b6:	687b      	ldr	r3, [r7, #4]
 80016b8:	685b      	ldr	r3, [r3, #4]
 80016ba:	2b00      	cmp	r3, #0
 80016bc:	d014      	beq.n	80016e8 <HAL_RCC_OscConfig+0xec>
      {
        /* Get Start Tick*/
        tickstart = HAL_GetTick();
 80016be:	f7ff fe9f 	bl	8001400 <HAL_GetTick>
 80016c2:	0003      	movs	r3, r0
 80016c4:	613b      	str	r3, [r7, #16]

        /* Wait till HSE is ready */
        while (READ_BIT(RCC->CR, RCC_CR_HSERDY) == 0U)
 80016c6:	e008      	b.n	80016da <HAL_RCC_OscConfig+0xde>
        {
          if ((HAL_GetTick() - tickstart) > HSE_TIMEOUT_VALUE)
 80016c8:	f7ff fe9a 	bl	8001400 <HAL_GetTick>
 80016cc:	0002      	movs	r2, r0
 80016ce:	693b      	ldr	r3, [r7, #16]
 80016d0:	1ad3      	subs	r3, r2, r3
 80016d2:	2b64      	cmp	r3, #100	; 0x64
 80016d4:	d901      	bls.n	80016da <HAL_RCC_OscConfig+0xde>
          {
            return HAL_TIMEOUT;
 80016d6:	2303      	movs	r3, #3
 80016d8:	e28d      	b.n	8001bf6 <HAL_RCC_OscConfig+0x5fa>
        while (READ_BIT(RCC->CR, RCC_CR_HSERDY) == 0U)
 80016da:	4b93      	ldr	r3, [pc, #588]	; (8001928 <HAL_RCC_OscConfig+0x32c>)
 80016dc:	681a      	ldr	r2, [r3, #0]
 80016de:	2380      	movs	r3, #128	; 0x80
 80016e0:	029b      	lsls	r3, r3, #10
 80016e2:	4013      	ands	r3, r2
 80016e4:	d0f0      	beq.n	80016c8 <HAL_RCC_OscConfig+0xcc>
 80016e6:	e015      	b.n	8001714 <HAL_RCC_OscConfig+0x118>
        }
      }
      else
      {
        /* Get Start Tick*/
        tickstart = HAL_GetTick();
 80016e8:	f7ff fe8a 	bl	8001400 <HAL_GetTick>
 80016ec:	0003      	movs	r3, r0
 80016ee:	613b      	str	r3, [r7, #16]

        /* Wait till HSE is disabled */
        while (READ_BIT(RCC->CR, RCC_CR_HSERDY) != 0U)
 80016f0:	e008      	b.n	8001704 <HAL_RCC_OscConfig+0x108>
        {
          if ((HAL_GetTick() - tickstart) > HSE_TIMEOUT_VALUE)
 80016f2:	f7ff fe85 	bl	8001400 <HAL_GetTick>
 80016f6:	0002      	movs	r2, r0
 80016f8:	693b      	ldr	r3, [r7, #16]
 80016fa:	1ad3      	subs	r3, r2, r3
 80016fc:	2b64      	cmp	r3, #100	; 0x64
 80016fe:	d901      	bls.n	8001704 <HAL_RCC_OscConfig+0x108>
          {
            return HAL_TIMEOUT;
 8001700:	2303      	movs	r3, #3
 8001702:	e278      	b.n	8001bf6 <HAL_RCC_OscConfig+0x5fa>
        while (READ_BIT(RCC->CR, RCC_CR_HSERDY) != 0U)
 8001704:	4b88      	ldr	r3, [pc, #544]	; (8001928 <HAL_RCC_OscConfig+0x32c>)
 8001706:	681a      	ldr	r2, [r3, #0]
 8001708:	2380      	movs	r3, #128	; 0x80
 800170a:	029b      	lsls	r3, r3, #10
 800170c:	4013      	ands	r3, r2
 800170e:	d1f0      	bne.n	80016f2 <HAL_RCC_OscConfig+0xf6>
 8001710:	e000      	b.n	8001714 <HAL_RCC_OscConfig+0x118>
      if ((READ_BIT(RCC->CR, RCC_CR_HSERDY) != 0U) && (RCC_OscInitStruct->HSEState == RCC_HSE_OFF))
 8001712:	46c0      	nop			; (mov r8, r8)
        }
      }
    }
  }
  /*----------------------------- HSI Configuration --------------------------*/
  if (((RCC_OscInitStruct->OscillatorType) & RCC_OSCILLATORTYPE_HSI) == RCC_OSCILLATORTYPE_HSI)
 8001714:	687b      	ldr	r3, [r7, #4]
 8001716:	681b      	ldr	r3, [r3, #0]
 8001718:	2202      	movs	r2, #2
 800171a:	4013      	ands	r3, r2
 800171c:	d100      	bne.n	8001720 <HAL_RCC_OscConfig+0x124>
 800171e:	e099      	b.n	8001854 <HAL_RCC_OscConfig+0x258>
    assert_param(IS_RCC_HSI(RCC_OscInitStruct->HSIState));
    assert_param(IS_RCC_HSI_CALIBRATION_VALUE(RCC_OscInitStruct->HSICalibrationValue));
    assert_param(IS_RCC_HSIDIV(RCC_OscInitStruct->HSIDiv));

    /* Check if HSI16 is used as system clock or as PLL source when PLL is selected as system clock */
    temp_sysclksrc = __HAL_RCC_GET_SYSCLK_SOURCE();
 8001720:	4b81      	ldr	r3, [pc, #516]	; (8001928 <HAL_RCC_OscConfig+0x32c>)
 8001722:	689b      	ldr	r3, [r3, #8]
 8001724:	2238      	movs	r2, #56	; 0x38
 8001726:	4013      	ands	r3, r2
 8001728:	61bb      	str	r3, [r7, #24]
    temp_pllckcfg = __HAL_RCC_GET_PLL_OSCSOURCE();
 800172a:	4b7f      	ldr	r3, [pc, #508]	; (8001928 <HAL_RCC_OscConfig+0x32c>)
 800172c:	68db      	ldr	r3, [r3, #12]
 800172e:	2203      	movs	r2, #3
 8001730:	4013      	ands	r3, r2
 8001732:	617b      	str	r3, [r7, #20]
    if (((temp_sysclksrc == RCC_SYSCLKSOURCE_STATUS_PLLCLK) && (temp_pllckcfg == RCC_PLLSOURCE_HSI))
 8001734:	69bb      	ldr	r3, [r7, #24]
 8001736:	2b10      	cmp	r3, #16
 8001738:	d102      	bne.n	8001740 <HAL_RCC_OscConfig+0x144>
 800173a:	697b      	ldr	r3, [r7, #20]
 800173c:	2b02      	cmp	r3, #2
 800173e:	d002      	beq.n	8001746 <HAL_RCC_OscConfig+0x14a>
        || (temp_sysclksrc == RCC_SYSCLKSOURCE_STATUS_HSI))
 8001740:	69bb      	ldr	r3, [r7, #24]
 8001742:	2b00      	cmp	r3, #0
 8001744:	d135      	bne.n	80017b2 <HAL_RCC_OscConfig+0x1b6>
    {
      /* When HSI is used as system clock or as PLL input clock it can not be disabled */
      if ((READ_BIT(RCC->CR, RCC_CR_HSIRDY) != 0U) && (RCC_OscInitStruct->HSIState == RCC_HSI_OFF))
 8001746:	4b78      	ldr	r3, [pc, #480]	; (8001928 <HAL_RCC_OscConfig+0x32c>)
 8001748:	681a      	ldr	r2, [r3, #0]
 800174a:	2380      	movs	r3, #128	; 0x80
 800174c:	00db      	lsls	r3, r3, #3
 800174e:	4013      	ands	r3, r2
 8001750:	d005      	beq.n	800175e <HAL_RCC_OscConfig+0x162>
 8001752:	687b      	ldr	r3, [r7, #4]
 8001754:	68db      	ldr	r3, [r3, #12]
 8001756:	2b00      	cmp	r3, #0
 8001758:	d101      	bne.n	800175e <HAL_RCC_OscConfig+0x162>
      {
        return HAL_ERROR;
 800175a:	2301      	movs	r3, #1
 800175c:	e24b      	b.n	8001bf6 <HAL_RCC_OscConfig+0x5fa>
      }
      /* Otherwise, just the calibration is allowed */
      else
      {
        /* Adjusts the Internal High Speed oscillator (HSI) calibration value.*/
        __HAL_RCC_HSI_CALIBRATIONVALUE_ADJUST(RCC_OscInitStruct->HSICalibrationValue);
 800175e:	4b72      	ldr	r3, [pc, #456]	; (8001928 <HAL_RCC_OscConfig+0x32c>)
 8001760:	685b      	ldr	r3, [r3, #4]
 8001762:	4a74      	ldr	r2, [pc, #464]	; (8001934 <HAL_RCC_OscConfig+0x338>)
 8001764:	4013      	ands	r3, r2
 8001766:	0019      	movs	r1, r3
 8001768:	687b      	ldr	r3, [r7, #4]
 800176a:	695b      	ldr	r3, [r3, #20]
 800176c:	021a      	lsls	r2, r3, #8
 800176e:	4b6e      	ldr	r3, [pc, #440]	; (8001928 <HAL_RCC_OscConfig+0x32c>)
 8001770:	430a      	orrs	r2, r1
 8001772:	605a      	str	r2, [r3, #4]

        if (temp_sysclksrc == RCC_SYSCLKSOURCE_STATUS_HSI)
 8001774:	69bb      	ldr	r3, [r7, #24]
 8001776:	2b00      	cmp	r3, #0
 8001778:	d112      	bne.n	80017a0 <HAL_RCC_OscConfig+0x1a4>
        {
          /* Adjust the HSI16 division factor */
          __HAL_RCC_HSI_CONFIG(RCC_OscInitStruct->HSIDiv);
 800177a:	4b6b      	ldr	r3, [pc, #428]	; (8001928 <HAL_RCC_OscConfig+0x32c>)
 800177c:	681b      	ldr	r3, [r3, #0]
 800177e:	4a6e      	ldr	r2, [pc, #440]	; (8001938 <HAL_RCC_OscConfig+0x33c>)
 8001780:	4013      	ands	r3, r2
 8001782:	0019      	movs	r1, r3
 8001784:	687b      	ldr	r3, [r7, #4]
 8001786:	691a      	ldr	r2, [r3, #16]
 8001788:	4b67      	ldr	r3, [pc, #412]	; (8001928 <HAL_RCC_OscConfig+0x32c>)
 800178a:	430a      	orrs	r2, r1
 800178c:	601a      	str	r2, [r3, #0]

          /* Update the SystemCoreClock global variable with HSISYS value  */
          SystemCoreClock = (HSI_VALUE / (1UL << ((READ_BIT(RCC->CR, RCC_CR_HSIDIV)) >> RCC_CR_HSIDIV_Pos)));
 800178e:	4b66      	ldr	r3, [pc, #408]	; (8001928 <HAL_RCC_OscConfig+0x32c>)
 8001790:	681b      	ldr	r3, [r3, #0]
 8001792:	0adb      	lsrs	r3, r3, #11
 8001794:	2207      	movs	r2, #7
 8001796:	4013      	ands	r3, r2
 8001798:	4a68      	ldr	r2, [pc, #416]	; (800193c <HAL_RCC_OscConfig+0x340>)
 800179a:	40da      	lsrs	r2, r3
 800179c:	4b68      	ldr	r3, [pc, #416]	; (8001940 <HAL_RCC_OscConfig+0x344>)
 800179e:	601a      	str	r2, [r3, #0]
        }

        /* Adapt Systick interrupt period */
        if (HAL_InitTick(uwTickPrio) != HAL_OK)
 80017a0:	4b68      	ldr	r3, [pc, #416]	; (8001944 <HAL_RCC_OscConfig+0x348>)
 80017a2:	681b      	ldr	r3, [r3, #0]
 80017a4:	0018      	movs	r0, r3
 80017a6:	f7ff fdcf 	bl	8001348 <HAL_InitTick>
 80017aa:	1e03      	subs	r3, r0, #0
 80017ac:	d051      	beq.n	8001852 <HAL_RCC_OscConfig+0x256>
        {
          return HAL_ERROR;
 80017ae:	2301      	movs	r3, #1
 80017b0:	e221      	b.n	8001bf6 <HAL_RCC_OscConfig+0x5fa>
      }
    }
    else
    {
      /* Check the HSI State */
      if (RCC_OscInitStruct->HSIState != RCC_HSI_OFF)
 80017b2:	687b      	ldr	r3, [r7, #4]
 80017b4:	68db      	ldr	r3, [r3, #12]
 80017b6:	2b00      	cmp	r3, #0
 80017b8:	d030      	beq.n	800181c <HAL_RCC_OscConfig+0x220>
      {
        /* Configure the HSI16 division factor */
        __HAL_RCC_HSI_CONFIG(RCC_OscInitStruct->HSIDiv);
 80017ba:	4b5b      	ldr	r3, [pc, #364]	; (8001928 <HAL_RCC_OscConfig+0x32c>)
 80017bc:	681b      	ldr	r3, [r3, #0]
 80017be:	4a5e      	ldr	r2, [pc, #376]	; (8001938 <HAL_RCC_OscConfig+0x33c>)
 80017c0:	4013      	ands	r3, r2
 80017c2:	0019      	movs	r1, r3
 80017c4:	687b      	ldr	r3, [r7, #4]
 80017c6:	691a      	ldr	r2, [r3, #16]
 80017c8:	4b57      	ldr	r3, [pc, #348]	; (8001928 <HAL_RCC_OscConfig+0x32c>)
 80017ca:	430a      	orrs	r2, r1
 80017cc:	601a      	str	r2, [r3, #0]

        /* Enable the Internal High Speed oscillator (HSI16). */
        __HAL_RCC_HSI_ENABLE();
 80017ce:	4b56      	ldr	r3, [pc, #344]	; (8001928 <HAL_RCC_OscConfig+0x32c>)
 80017d0:	681a      	ldr	r2, [r3, #0]
 80017d2:	4b55      	ldr	r3, [pc, #340]	; (8001928 <HAL_RCC_OscConfig+0x32c>)
 80017d4:	2180      	movs	r1, #128	; 0x80
 80017d6:	0049      	lsls	r1, r1, #1
 80017d8:	430a      	orrs	r2, r1
 80017da:	601a      	str	r2, [r3, #0]

        /* Get Start Tick*/
        tickstart = HAL_GetTick();
 80017dc:	f7ff fe10 	bl	8001400 <HAL_GetTick>
 80017e0:	0003      	movs	r3, r0
 80017e2:	613b      	str	r3, [r7, #16]

        /* Wait till HSI is ready */
        while (READ_BIT(RCC->CR, RCC_CR_HSIRDY) == 0U)
 80017e4:	e008      	b.n	80017f8 <HAL_RCC_OscConfig+0x1fc>
        {
          if ((HAL_GetTick() - tickstart) > HSI_TIMEOUT_VALUE)
 80017e6:	f7ff fe0b 	bl	8001400 <HAL_GetTick>
 80017ea:	0002      	movs	r2, r0
 80017ec:	693b      	ldr	r3, [r7, #16]
 80017ee:	1ad3      	subs	r3, r2, r3
 80017f0:	2b02      	cmp	r3, #2
 80017f2:	d901      	bls.n	80017f8 <HAL_RCC_OscConfig+0x1fc>
          {
            return HAL_TIMEOUT;
 80017f4:	2303      	movs	r3, #3
 80017f6:	e1fe      	b.n	8001bf6 <HAL_RCC_OscConfig+0x5fa>
        while (READ_BIT(RCC->CR, RCC_CR_HSIRDY) == 0U)
 80017f8:	4b4b      	ldr	r3, [pc, #300]	; (8001928 <HAL_RCC_OscConfig+0x32c>)
 80017fa:	681a      	ldr	r2, [r3, #0]
 80017fc:	2380      	movs	r3, #128	; 0x80
 80017fe:	00db      	lsls	r3, r3, #3
 8001800:	4013      	ands	r3, r2
 8001802:	d0f0      	beq.n	80017e6 <HAL_RCC_OscConfig+0x1ea>
          }
        }

        /* Adjusts the Internal High Speed oscillator (HSI) calibration value.*/
        __HAL_RCC_HSI_CALIBRATIONVALUE_ADJUST(RCC_OscInitStruct->HSICalibrationValue);
 8001804:	4b48      	ldr	r3, [pc, #288]	; (8001928 <HAL_RCC_OscConfig+0x32c>)
 8001806:	685b      	ldr	r3, [r3, #4]
 8001808:	4a4a      	ldr	r2, [pc, #296]	; (8001934 <HAL_RCC_OscConfig+0x338>)
 800180a:	4013      	ands	r3, r2
 800180c:	0019      	movs	r1, r3
 800180e:	687b      	ldr	r3, [r7, #4]
 8001810:	695b      	ldr	r3, [r3, #20]
 8001812:	021a      	lsls	r2, r3, #8
 8001814:	4b44      	ldr	r3, [pc, #272]	; (8001928 <HAL_RCC_OscConfig+0x32c>)
 8001816:	430a      	orrs	r2, r1
 8001818:	605a      	str	r2, [r3, #4]
 800181a:	e01b      	b.n	8001854 <HAL_RCC_OscConfig+0x258>
      }
      else
      {
        /* Disable the Internal High Speed oscillator (HSI16). */
        __HAL_RCC_HSI_DISABLE();
 800181c:	4b42      	ldr	r3, [pc, #264]	; (8001928 <HAL_RCC_OscConfig+0x32c>)
 800181e:	681a      	ldr	r2, [r3, #0]
 8001820:	4b41      	ldr	r3, [pc, #260]	; (8001928 <HAL_RCC_OscConfig+0x32c>)
 8001822:	4949      	ldr	r1, [pc, #292]	; (8001948 <HAL_RCC_OscConfig+0x34c>)
 8001824:	400a      	ands	r2, r1
 8001826:	601a      	str	r2, [r3, #0]

        /* Get Start Tick*/
        tickstart = HAL_GetTick();
 8001828:	f7ff fdea 	bl	8001400 <HAL_GetTick>
 800182c:	0003      	movs	r3, r0
 800182e:	613b      	str	r3, [r7, #16]

        /* Wait till HSI is disabled */
        while (READ_BIT(RCC->CR, RCC_CR_HSIRDY) != 0U)
 8001830:	e008      	b.n	8001844 <HAL_RCC_OscConfig+0x248>
        {
          if ((HAL_GetTick() - tickstart) > HSI_TIMEOUT_VALUE)
 8001832:	f7ff fde5 	bl	8001400 <HAL_GetTick>
 8001836:	0002      	movs	r2, r0
 8001838:	693b      	ldr	r3, [r7, #16]
 800183a:	1ad3      	subs	r3, r2, r3
 800183c:	2b02      	cmp	r3, #2
 800183e:	d901      	bls.n	8001844 <HAL_RCC_OscConfig+0x248>
          {
            return HAL_TIMEOUT;
 8001840:	2303      	movs	r3, #3
 8001842:	e1d8      	b.n	8001bf6 <HAL_RCC_OscConfig+0x5fa>
        while (READ_BIT(RCC->CR, RCC_CR_HSIRDY) != 0U)
 8001844:	4b38      	ldr	r3, [pc, #224]	; (8001928 <HAL_RCC_OscConfig+0x32c>)
 8001846:	681a      	ldr	r2, [r3, #0]
 8001848:	2380      	movs	r3, #128	; 0x80
 800184a:	00db      	lsls	r3, r3, #3
 800184c:	4013      	ands	r3, r2
 800184e:	d1f0      	bne.n	8001832 <HAL_RCC_OscConfig+0x236>
 8001850:	e000      	b.n	8001854 <HAL_RCC_OscConfig+0x258>
      if ((READ_BIT(RCC->CR, RCC_CR_HSIRDY) != 0U) && (RCC_OscInitStruct->HSIState == RCC_HSI_OFF))
 8001852:	46c0      	nop			; (mov r8, r8)
        }
      }
    }
  }
  /*------------------------------ LSI Configuration -------------------------*/
  if (((RCC_OscInitStruct->OscillatorType) & RCC_OSCILLATORTYPE_LSI) == RCC_OSCILLATORTYPE_LSI)
 8001854:	687b      	ldr	r3, [r7, #4]
 8001856:	681b      	ldr	r3, [r3, #0]
 8001858:	2208      	movs	r2, #8
 800185a:	4013      	ands	r3, r2
 800185c:	d047      	beq.n	80018ee <HAL_RCC_OscConfig+0x2f2>
  {
    /* Check the parameters */
    assert_param(IS_RCC_LSI(RCC_OscInitStruct->LSIState));

    /* Check if LSI is used as system clock */
    if (__HAL_RCC_GET_SYSCLK_SOURCE() == RCC_SYSCLKSOURCE_STATUS_LSI)
 800185e:	4b32      	ldr	r3, [pc, #200]	; (8001928 <HAL_RCC_OscConfig+0x32c>)
 8001860:	689b      	ldr	r3, [r3, #8]
 8001862:	2238      	movs	r2, #56	; 0x38
 8001864:	4013      	ands	r3, r2
 8001866:	2b18      	cmp	r3, #24
 8001868:	d10a      	bne.n	8001880 <HAL_RCC_OscConfig+0x284>
    {
      /* When LSI is used as system clock it will not be disabled */
      if ((((RCC->CSR) & RCC_CSR_LSIRDY) != 0U) && (RCC_OscInitStruct->LSIState == RCC_LSI_OFF))
 800186a:	4b2f      	ldr	r3, [pc, #188]	; (8001928 <HAL_RCC_OscConfig+0x32c>)
 800186c:	6e1b      	ldr	r3, [r3, #96]	; 0x60
 800186e:	2202      	movs	r2, #2
 8001870:	4013      	ands	r3, r2
 8001872:	d03c      	beq.n	80018ee <HAL_RCC_OscConfig+0x2f2>
 8001874:	687b      	ldr	r3, [r7, #4]
 8001876:	699b      	ldr	r3, [r3, #24]
 8001878:	2b00      	cmp	r3, #0
 800187a:	d138      	bne.n	80018ee <HAL_RCC_OscConfig+0x2f2>
      {
        return HAL_ERROR;
 800187c:	2301      	movs	r3, #1
 800187e:	e1ba      	b.n	8001bf6 <HAL_RCC_OscConfig+0x5fa>
      }
    }
    else
    {
      /* Check the LSI State */
      if (RCC_OscInitStruct->LSIState != RCC_LSI_OFF)
 8001880:	687b      	ldr	r3, [r7, #4]
 8001882:	699b      	ldr	r3, [r3, #24]
 8001884:	2b00      	cmp	r3, #0
 8001886:	d019      	beq.n	80018bc <HAL_RCC_OscConfig+0x2c0>
      {
        /* Enable the Internal Low Speed oscillator (LSI). */
        __HAL_RCC_LSI_ENABLE();
 8001888:	4b27      	ldr	r3, [pc, #156]	; (8001928 <HAL_RCC_OscConfig+0x32c>)
 800188a:	6e1a      	ldr	r2, [r3, #96]	; 0x60
 800188c:	4b26      	ldr	r3, [pc, #152]	; (8001928 <HAL_RCC_OscConfig+0x32c>)
 800188e:	2101      	movs	r1, #1
 8001890:	430a      	orrs	r2, r1
 8001892:	661a      	str	r2, [r3, #96]	; 0x60

        /* Get Start Tick*/
        tickstart = HAL_GetTick();
 8001894:	f7ff fdb4 	bl	8001400 <HAL_GetTick>
 8001898:	0003      	movs	r3, r0
 800189a:	613b      	str	r3, [r7, #16]

        /* Wait till LSI is ready */
        while (READ_BIT(RCC->CSR, RCC_CSR_LSIRDY) == 0U)
 800189c:	e008      	b.n	80018b0 <HAL_RCC_OscConfig+0x2b4>
        {
          if ((HAL_GetTick() - tickstart) > LSI_TIMEOUT_VALUE)
 800189e:	f7ff fdaf 	bl	8001400 <HAL_GetTick>
 80018a2:	0002      	movs	r2, r0
 80018a4:	693b      	ldr	r3, [r7, #16]
 80018a6:	1ad3      	subs	r3, r2, r3
 80018a8:	2b02      	cmp	r3, #2
 80018aa:	d901      	bls.n	80018b0 <HAL_RCC_OscConfig+0x2b4>
          {
            return HAL_TIMEOUT;
 80018ac:	2303      	movs	r3, #3
 80018ae:	e1a2      	b.n	8001bf6 <HAL_RCC_OscConfig+0x5fa>
        while (READ_BIT(RCC->CSR, RCC_CSR_LSIRDY) == 0U)
 80018b0:	4b1d      	ldr	r3, [pc, #116]	; (8001928 <HAL_RCC_OscConfig+0x32c>)
 80018b2:	6e1b      	ldr	r3, [r3, #96]	; 0x60
 80018b4:	2202      	movs	r2, #2
 80018b6:	4013      	ands	r3, r2
 80018b8:	d0f1      	beq.n	800189e <HAL_RCC_OscConfig+0x2a2>
 80018ba:	e018      	b.n	80018ee <HAL_RCC_OscConfig+0x2f2>
        }
      }
      else
      {
        /* Disable the Internal Low Speed oscillator (LSI). */
        __HAL_RCC_LSI_DISABLE();
 80018bc:	4b1a      	ldr	r3, [pc, #104]	; (8001928 <HAL_RCC_OscConfig+0x32c>)
 80018be:	6e1a      	ldr	r2, [r3, #96]	; 0x60
 80018c0:	4b19      	ldr	r3, [pc, #100]	; (8001928 <HAL_RCC_OscConfig+0x32c>)
 80018c2:	2101      	movs	r1, #1
 80018c4:	438a      	bics	r2, r1
 80018c6:	661a      	str	r2, [r3, #96]	; 0x60

        /* Get Start Tick*/
        tickstart = HAL_GetTick();
 80018c8:	f7ff fd9a 	bl	8001400 <HAL_GetTick>
 80018cc:	0003      	movs	r3, r0
 80018ce:	613b      	str	r3, [r7, #16]

        /* Wait till LSI is disabled */
        while (READ_BIT(RCC->CSR, RCC_CSR_LSIRDY) != 0U)
 80018d0:	e008      	b.n	80018e4 <HAL_RCC_OscConfig+0x2e8>
        {
          if ((HAL_GetTick() - tickstart) > LSI_TIMEOUT_VALUE)
 80018d2:	f7ff fd95 	bl	8001400 <HAL_GetTick>
 80018d6:	0002      	movs	r2, r0
 80018d8:	693b      	ldr	r3, [r7, #16]
 80018da:	1ad3      	subs	r3, r2, r3
 80018dc:	2b02      	cmp	r3, #2
 80018de:	d901      	bls.n	80018e4 <HAL_RCC_OscConfig+0x2e8>
          {
            return HAL_TIMEOUT;
 80018e0:	2303      	movs	r3, #3
 80018e2:	e188      	b.n	8001bf6 <HAL_RCC_OscConfig+0x5fa>
        while (READ_BIT(RCC->CSR, RCC_CSR_LSIRDY) != 0U)
 80018e4:	4b10      	ldr	r3, [pc, #64]	; (8001928 <HAL_RCC_OscConfig+0x32c>)
 80018e6:	6e1b      	ldr	r3, [r3, #96]	; 0x60
 80018e8:	2202      	movs	r2, #2
 80018ea:	4013      	ands	r3, r2
 80018ec:	d1f1      	bne.n	80018d2 <HAL_RCC_OscConfig+0x2d6>
        }
      }
    }
  }
  /*------------------------------ LSE Configuration -------------------------*/
  if (((RCC_OscInitStruct->OscillatorType) & RCC_OSCILLATORTYPE_LSE) == RCC_OSCILLATORTYPE_LSE)
 80018ee:	687b      	ldr	r3, [r7, #4]
 80018f0:	681b      	ldr	r3, [r3, #0]
 80018f2:	2204      	movs	r2, #4
 80018f4:	4013      	ands	r3, r2
 80018f6:	d100      	bne.n	80018fa <HAL_RCC_OscConfig+0x2fe>
 80018f8:	e0c6      	b.n	8001a88 <HAL_RCC_OscConfig+0x48c>
  {
    FlagStatus       pwrclkchanged = RESET;
 80018fa:	231f      	movs	r3, #31
 80018fc:	18fb      	adds	r3, r7, r3
 80018fe:	2200      	movs	r2, #0
 8001900:	701a      	strb	r2, [r3, #0]

    /* Check the parameters */
    assert_param(IS_RCC_LSE(RCC_OscInitStruct->LSEState));

    /* When the LSE is used as system clock, it is not allowed disable it */
    if (__HAL_RCC_GET_SYSCLK_SOURCE() == RCC_SYSCLKSOURCE_STATUS_LSE)
 8001902:	4b09      	ldr	r3, [pc, #36]	; (8001928 <HAL_RCC_OscConfig+0x32c>)
 8001904:	689b      	ldr	r3, [r3, #8]
 8001906:	2238      	movs	r2, #56	; 0x38
 8001908:	4013      	ands	r3, r2
 800190a:	2b20      	cmp	r3, #32
 800190c:	d11e      	bne.n	800194c <HAL_RCC_OscConfig+0x350>
    {
      if ((((RCC->BDCR) & RCC_BDCR_LSERDY) != 0U) && (RCC_OscInitStruct->LSEState == RCC_LSE_OFF))
 800190e:	4b06      	ldr	r3, [pc, #24]	; (8001928 <HAL_RCC_OscConfig+0x32c>)
 8001910:	6ddb      	ldr	r3, [r3, #92]	; 0x5c
 8001912:	2202      	movs	r2, #2
 8001914:	4013      	ands	r3, r2
 8001916:	d100      	bne.n	800191a <HAL_RCC_OscConfig+0x31e>
 8001918:	e0b6      	b.n	8001a88 <HAL_RCC_OscConfig+0x48c>
 800191a:	687b      	ldr	r3, [r7, #4]
 800191c:	689b      	ldr	r3, [r3, #8]
 800191e:	2b00      	cmp	r3, #0
 8001920:	d000      	beq.n	8001924 <HAL_RCC_OscConfig+0x328>
 8001922:	e0b1      	b.n	8001a88 <HAL_RCC_OscConfig+0x48c>
      {
        return HAL_ERROR;
 8001924:	2301      	movs	r3, #1
 8001926:	e166      	b.n	8001bf6 <HAL_RCC_OscConfig+0x5fa>
 8001928:	40021000 	.word	0x40021000
 800192c:	fffeffff 	.word	0xfffeffff
 8001930:	fffbffff 	.word	0xfffbffff
 8001934:	ffff80ff 	.word	0xffff80ff
 8001938:	ffffc7ff 	.word	0xffffc7ff
 800193c:	00f42400 	.word	0x00f42400
 8001940:	20000000 	.word	0x20000000
 8001944:	20000004 	.word	0x20000004
 8001948:	fffffeff 	.word	0xfffffeff
    }
    else
    {
      /* Update LSE configuration in Backup Domain control register    */
      /* Requires to enable write access to Backup Domain of necessary */
      if (__HAL_RCC_PWR_IS_CLK_DISABLED() != 0U)
 800194c:	4bac      	ldr	r3, [pc, #688]	; (8001c00 <HAL_RCC_OscConfig+0x604>)
 800194e:	6bda      	ldr	r2, [r3, #60]	; 0x3c
 8001950:	2380      	movs	r3, #128	; 0x80
 8001952:	055b      	lsls	r3, r3, #21
 8001954:	4013      	ands	r3, r2
 8001956:	d101      	bne.n	800195c <HAL_RCC_OscConfig+0x360>
 8001958:	2301      	movs	r3, #1
 800195a:	e000      	b.n	800195e <HAL_RCC_OscConfig+0x362>
 800195c:	2300      	movs	r3, #0
 800195e:	2b00      	cmp	r3, #0
 8001960:	d011      	beq.n	8001986 <HAL_RCC_OscConfig+0x38a>
      {
        __HAL_RCC_PWR_CLK_ENABLE();
 8001962:	4ba7      	ldr	r3, [pc, #668]	; (8001c00 <HAL_RCC_OscConfig+0x604>)
 8001964:	6bda      	ldr	r2, [r3, #60]	; 0x3c
 8001966:	4ba6      	ldr	r3, [pc, #664]	; (8001c00 <HAL_RCC_OscConfig+0x604>)
 8001968:	2180      	movs	r1, #128	; 0x80
 800196a:	0549      	lsls	r1, r1, #21
 800196c:	430a      	orrs	r2, r1
 800196e:	63da      	str	r2, [r3, #60]	; 0x3c
 8001970:	4ba3      	ldr	r3, [pc, #652]	; (8001c00 <HAL_RCC_OscConfig+0x604>)
 8001972:	6bda      	ldr	r2, [r3, #60]	; 0x3c
 8001974:	2380      	movs	r3, #128	; 0x80
 8001976:	055b      	lsls	r3, r3, #21
 8001978:	4013      	ands	r3, r2
 800197a:	60fb      	str	r3, [r7, #12]
 800197c:	68fb      	ldr	r3, [r7, #12]
        pwrclkchanged = SET;
 800197e:	231f      	movs	r3, #31
 8001980:	18fb      	adds	r3, r7, r3
 8001982:	2201      	movs	r2, #1
 8001984:	701a      	strb	r2, [r3, #0]
      }

      if (HAL_IS_BIT_CLR(PWR->CR1, PWR_CR1_DBP))
 8001986:	4b9f      	ldr	r3, [pc, #636]	; (8001c04 <HAL_RCC_OscConfig+0x608>)
 8001988:	681a      	ldr	r2, [r3, #0]
 800198a:	2380      	movs	r3, #128	; 0x80
 800198c:	005b      	lsls	r3, r3, #1
 800198e:	4013      	ands	r3, r2
 8001990:	d11a      	bne.n	80019c8 <HAL_RCC_OscConfig+0x3cc>
      {
        /* Enable write access to Backup domain */
        SET_BIT(PWR->CR1, PWR_CR1_DBP);
 8001992:	4b9c      	ldr	r3, [pc, #624]	; (8001c04 <HAL_RCC_OscConfig+0x608>)
 8001994:	681a      	ldr	r2, [r3, #0]
 8001996:	4b9b      	ldr	r3, [pc, #620]	; (8001c04 <HAL_RCC_OscConfig+0x608>)
 8001998:	2180      	movs	r1, #128	; 0x80
 800199a:	0049      	lsls	r1, r1, #1
 800199c:	430a      	orrs	r2, r1
 800199e:	601a      	str	r2, [r3, #0]

        /* Wait for Backup domain Write protection disable */
        tickstart = HAL_GetTick();
 80019a0:	f7ff fd2e 	bl	8001400 <HAL_GetTick>
 80019a4:	0003      	movs	r3, r0
 80019a6:	613b      	str	r3, [r7, #16]

        while (HAL_IS_BIT_CLR(PWR->CR1, PWR_CR1_DBP))
 80019a8:	e008      	b.n	80019bc <HAL_RCC_OscConfig+0x3c0>
        {
          if ((HAL_GetTick() - tickstart) > RCC_DBP_TIMEOUT_VALUE)
 80019aa:	f7ff fd29 	bl	8001400 <HAL_GetTick>
 80019ae:	0002      	movs	r2, r0
 80019b0:	693b      	ldr	r3, [r7, #16]
 80019b2:	1ad3      	subs	r3, r2, r3
 80019b4:	2b02      	cmp	r3, #2
 80019b6:	d901      	bls.n	80019bc <HAL_RCC_OscConfig+0x3c0>
          {
            return HAL_TIMEOUT;
 80019b8:	2303      	movs	r3, #3
 80019ba:	e11c      	b.n	8001bf6 <HAL_RCC_OscConfig+0x5fa>
        while (HAL_IS_BIT_CLR(PWR->CR1, PWR_CR1_DBP))
 80019bc:	4b91      	ldr	r3, [pc, #580]	; (8001c04 <HAL_RCC_OscConfig+0x608>)
 80019be:	681a      	ldr	r2, [r3, #0]
 80019c0:	2380      	movs	r3, #128	; 0x80
 80019c2:	005b      	lsls	r3, r3, #1
 80019c4:	4013      	ands	r3, r2
 80019c6:	d0f0      	beq.n	80019aa <HAL_RCC_OscConfig+0x3ae>
          }
        }
      }

      /* Set the new LSE configuration -----------------------------------------*/
      __HAL_RCC_LSE_CONFIG(RCC_OscInitStruct->LSEState);
 80019c8:	687b      	ldr	r3, [r7, #4]
 80019ca:	689b      	ldr	r3, [r3, #8]
 80019cc:	2b01      	cmp	r3, #1
 80019ce:	d106      	bne.n	80019de <HAL_RCC_OscConfig+0x3e2>
 80019d0:	4b8b      	ldr	r3, [pc, #556]	; (8001c00 <HAL_RCC_OscConfig+0x604>)
 80019d2:	6dda      	ldr	r2, [r3, #92]	; 0x5c
 80019d4:	4b8a      	ldr	r3, [pc, #552]	; (8001c00 <HAL_RCC_OscConfig+0x604>)
 80019d6:	2101      	movs	r1, #1
 80019d8:	430a      	orrs	r2, r1
 80019da:	65da      	str	r2, [r3, #92]	; 0x5c
 80019dc:	e01c      	b.n	8001a18 <HAL_RCC_OscConfig+0x41c>
 80019de:	687b      	ldr	r3, [r7, #4]
 80019e0:	689b      	ldr	r3, [r3, #8]
 80019e2:	2b05      	cmp	r3, #5
 80019e4:	d10c      	bne.n	8001a00 <HAL_RCC_OscConfig+0x404>
 80019e6:	4b86      	ldr	r3, [pc, #536]	; (8001c00 <HAL_RCC_OscConfig+0x604>)
 80019e8:	6dda      	ldr	r2, [r3, #92]	; 0x5c
 80019ea:	4b85      	ldr	r3, [pc, #532]	; (8001c00 <HAL_RCC_OscConfig+0x604>)
 80019ec:	2104      	movs	r1, #4
 80019ee:	430a      	orrs	r2, r1
 80019f0:	65da      	str	r2, [r3, #92]	; 0x5c
 80019f2:	4b83      	ldr	r3, [pc, #524]	; (8001c00 <HAL_RCC_OscConfig+0x604>)
 80019f4:	6dda      	ldr	r2, [r3, #92]	; 0x5c
 80019f6:	4b82      	ldr	r3, [pc, #520]	; (8001c00 <HAL_RCC_OscConfig+0x604>)
 80019f8:	2101      	movs	r1, #1
 80019fa:	430a      	orrs	r2, r1
 80019fc:	65da      	str	r2, [r3, #92]	; 0x5c
 80019fe:	e00b      	b.n	8001a18 <HAL_RCC_OscConfig+0x41c>
 8001a00:	4b7f      	ldr	r3, [pc, #508]	; (8001c00 <HAL_RCC_OscConfig+0x604>)
 8001a02:	6dda      	ldr	r2, [r3, #92]	; 0x5c
 8001a04:	4b7e      	ldr	r3, [pc, #504]	; (8001c00 <HAL_RCC_OscConfig+0x604>)
 8001a06:	2101      	movs	r1, #1
 8001a08:	438a      	bics	r2, r1
 8001a0a:	65da      	str	r2, [r3, #92]	; 0x5c
 8001a0c:	4b7c      	ldr	r3, [pc, #496]	; (8001c00 <HAL_RCC_OscConfig+0x604>)
 8001a0e:	6dda      	ldr	r2, [r3, #92]	; 0x5c
 8001a10:	4b7b      	ldr	r3, [pc, #492]	; (8001c00 <HAL_RCC_OscConfig+0x604>)
 8001a12:	2104      	movs	r1, #4
 8001a14:	438a      	bics	r2, r1
 8001a16:	65da      	str	r2, [r3, #92]	; 0x5c

      /* Check the LSE State */
      if (RCC_OscInitStruct->LSEState != RCC_LSE_OFF)
 8001a18:	687b      	ldr	r3, [r7, #4]
 8001a1a:	689b      	ldr	r3, [r3, #8]
 8001a1c:	2b00      	cmp	r3, #0
 8001a1e:	d014      	beq.n	8001a4a <HAL_RCC_OscConfig+0x44e>
      {
        /* Get Start Tick*/
        tickstart = HAL_GetTick();
 8001a20:	f7ff fcee 	bl	8001400 <HAL_GetTick>
 8001a24:	0003      	movs	r3, r0
 8001a26:	613b      	str	r3, [r7, #16]

        /* Wait till LSE is ready */
        while (READ_BIT(RCC->BDCR, RCC_BDCR_LSERDY) == 0U)
 8001a28:	e009      	b.n	8001a3e <HAL_RCC_OscConfig+0x442>
        {
          if ((HAL_GetTick() - tickstart) > RCC_LSE_TIMEOUT_VALUE)
 8001a2a:	f7ff fce9 	bl	8001400 <HAL_GetTick>
 8001a2e:	0002      	movs	r2, r0
 8001a30:	693b      	ldr	r3, [r7, #16]
 8001a32:	1ad3      	subs	r3, r2, r3
 8001a34:	4a74      	ldr	r2, [pc, #464]	; (8001c08 <HAL_RCC_OscConfig+0x60c>)
 8001a36:	4293      	cmp	r3, r2
 8001a38:	d901      	bls.n	8001a3e <HAL_RCC_OscConfig+0x442>
          {
            return HAL_TIMEOUT;
 8001a3a:	2303      	movs	r3, #3
 8001a3c:	e0db      	b.n	8001bf6 <HAL_RCC_OscConfig+0x5fa>
        while (READ_BIT(RCC->BDCR, RCC_BDCR_LSERDY) == 0U)
 8001a3e:	4b70      	ldr	r3, [pc, #448]	; (8001c00 <HAL_RCC_OscConfig+0x604>)
 8001a40:	6ddb      	ldr	r3, [r3, #92]	; 0x5c
 8001a42:	2202      	movs	r2, #2
 8001a44:	4013      	ands	r3, r2
 8001a46:	d0f0      	beq.n	8001a2a <HAL_RCC_OscConfig+0x42e>
 8001a48:	e013      	b.n	8001a72 <HAL_RCC_OscConfig+0x476>
        }
      }
      else
      {
        /* Get Start Tick*/
        tickstart = HAL_GetTick();
 8001a4a:	f7ff fcd9 	bl	8001400 <HAL_GetTick>
 8001a4e:	0003      	movs	r3, r0
 8001a50:	613b      	str	r3, [r7, #16]

        /* Wait till LSE is disabled */
        while (READ_BIT(RCC->BDCR, RCC_BDCR_LSERDY) != 0U)
 8001a52:	e009      	b.n	8001a68 <HAL_RCC_OscConfig+0x46c>
        {
          if ((HAL_GetTick() - tickstart) > RCC_LSE_TIMEOUT_VALUE)
 8001a54:	f7ff fcd4 	bl	8001400 <HAL_GetTick>
 8001a58:	0002      	movs	r2, r0
 8001a5a:	693b      	ldr	r3, [r7, #16]
 8001a5c:	1ad3      	subs	r3, r2, r3
 8001a5e:	4a6a      	ldr	r2, [pc, #424]	; (8001c08 <HAL_RCC_OscConfig+0x60c>)
 8001a60:	4293      	cmp	r3, r2
 8001a62:	d901      	bls.n	8001a68 <HAL_RCC_OscConfig+0x46c>
          {
            return HAL_TIMEOUT;
 8001a64:	2303      	movs	r3, #3
 8001a66:	e0c6      	b.n	8001bf6 <HAL_RCC_OscConfig+0x5fa>
        while (READ_BIT(RCC->BDCR, RCC_BDCR_LSERDY) != 0U)
 8001a68:	4b65      	ldr	r3, [pc, #404]	; (8001c00 <HAL_RCC_OscConfig+0x604>)
 8001a6a:	6ddb      	ldr	r3, [r3, #92]	; 0x5c
 8001a6c:	2202      	movs	r2, #2
 8001a6e:	4013      	ands	r3, r2
 8001a70:	d1f0      	bne.n	8001a54 <HAL_RCC_OscConfig+0x458>
          }
        }
      }

      /* Restore clock configuration if changed */
      if (pwrclkchanged == SET)
 8001a72:	231f      	movs	r3, #31
 8001a74:	18fb      	adds	r3, r7, r3
 8001a76:	781b      	ldrb	r3, [r3, #0]
 8001a78:	2b01      	cmp	r3, #1
 8001a7a:	d105      	bne.n	8001a88 <HAL_RCC_OscConfig+0x48c>
      {
        __HAL_RCC_PWR_CLK_DISABLE();
 8001a7c:	4b60      	ldr	r3, [pc, #384]	; (8001c00 <HAL_RCC_OscConfig+0x604>)
 8001a7e:	6bda      	ldr	r2, [r3, #60]	; 0x3c
 8001a80:	4b5f      	ldr	r3, [pc, #380]	; (8001c00 <HAL_RCC_OscConfig+0x604>)
 8001a82:	4962      	ldr	r1, [pc, #392]	; (8001c0c <HAL_RCC_OscConfig+0x610>)
 8001a84:	400a      	ands	r2, r1
 8001a86:	63da      	str	r2, [r3, #60]	; 0x3c
#endif /* RCC_HSI48_SUPPORT */
  /*-------------------------------- PLL Configuration -----------------------*/
  /* Check the parameters */
  assert_param(IS_RCC_PLL(RCC_OscInitStruct->PLL.PLLState));

  if (RCC_OscInitStruct->PLL.PLLState != RCC_PLL_NONE)
 8001a88:	687b      	ldr	r3, [r7, #4]
 8001a8a:	69db      	ldr	r3, [r3, #28]
 8001a8c:	2b00      	cmp	r3, #0
 8001a8e:	d100      	bne.n	8001a92 <HAL_RCC_OscConfig+0x496>
 8001a90:	e0b0      	b.n	8001bf4 <HAL_RCC_OscConfig+0x5f8>
  {
    /* Check if the PLL is used as system clock or not */
    if (__HAL_RCC_GET_SYSCLK_SOURCE() != RCC_SYSCLKSOURCE_STATUS_PLLCLK)
 8001a92:	4b5b      	ldr	r3, [pc, #364]	; (8001c00 <HAL_RCC_OscConfig+0x604>)
 8001a94:	689b      	ldr	r3, [r3, #8]
 8001a96:	2238      	movs	r2, #56	; 0x38
 8001a98:	4013      	ands	r3, r2
 8001a9a:	2b10      	cmp	r3, #16
 8001a9c:	d100      	bne.n	8001aa0 <HAL_RCC_OscConfig+0x4a4>
 8001a9e:	e078      	b.n	8001b92 <HAL_RCC_OscConfig+0x596>
    {
      if (RCC_OscInitStruct->PLL.PLLState == RCC_PLL_ON)
 8001aa0:	687b      	ldr	r3, [r7, #4]
 8001aa2:	69db      	ldr	r3, [r3, #28]
 8001aa4:	2b02      	cmp	r3, #2
 8001aa6:	d153      	bne.n	8001b50 <HAL_RCC_OscConfig+0x554>
        assert_param(IS_RCC_PLLQ_VALUE(RCC_OscInitStruct->PLL.PLLQ));
#endif /* RCC_PLLQ_SUPPORT */
        assert_param(IS_RCC_PLLR_VALUE(RCC_OscInitStruct->PLL.PLLR));

        /* Disable the main PLL. */
        __HAL_RCC_PLL_DISABLE();
 8001aa8:	4b55      	ldr	r3, [pc, #340]	; (8001c00 <HAL_RCC_OscConfig+0x604>)
 8001aaa:	681a      	ldr	r2, [r3, #0]
 8001aac:	4b54      	ldr	r3, [pc, #336]	; (8001c00 <HAL_RCC_OscConfig+0x604>)
 8001aae:	4958      	ldr	r1, [pc, #352]	; (8001c10 <HAL_RCC_OscConfig+0x614>)
 8001ab0:	400a      	ands	r2, r1
 8001ab2:	601a      	str	r2, [r3, #0]

        /* Get Start Tick*/
        tickstart = HAL_GetTick();
 8001ab4:	f7ff fca4 	bl	8001400 <HAL_GetTick>
 8001ab8:	0003      	movs	r3, r0
 8001aba:	613b      	str	r3, [r7, #16]

        /* Wait till PLL is ready */
        while (READ_BIT(RCC->CR, RCC_CR_PLLRDY) != 0U)
 8001abc:	e008      	b.n	8001ad0 <HAL_RCC_OscConfig+0x4d4>
        {
          if ((HAL_GetTick() - tickstart) > PLL_TIMEOUT_VALUE)
 8001abe:	f7ff fc9f 	bl	8001400 <HAL_GetTick>
 8001ac2:	0002      	movs	r2, r0
 8001ac4:	693b      	ldr	r3, [r7, #16]
 8001ac6:	1ad3      	subs	r3, r2, r3
 8001ac8:	2b02      	cmp	r3, #2
 8001aca:	d901      	bls.n	8001ad0 <HAL_RCC_OscConfig+0x4d4>
          {
            return HAL_TIMEOUT;
 8001acc:	2303      	movs	r3, #3
 8001ace:	e092      	b.n	8001bf6 <HAL_RCC_OscConfig+0x5fa>
        while (READ_BIT(RCC->CR, RCC_CR_PLLRDY) != 0U)
 8001ad0:	4b4b      	ldr	r3, [pc, #300]	; (8001c00 <HAL_RCC_OscConfig+0x604>)
 8001ad2:	681a      	ldr	r2, [r3, #0]
 8001ad4:	2380      	movs	r3, #128	; 0x80
 8001ad6:	049b      	lsls	r3, r3, #18
 8001ad8:	4013      	ands	r3, r2
 8001ada:	d1f0      	bne.n	8001abe <HAL_RCC_OscConfig+0x4c2>
                             RCC_OscInitStruct->PLL.PLLN,
                             RCC_OscInitStruct->PLL.PLLP,
                             RCC_OscInitStruct->PLL.PLLQ,
                             RCC_OscInitStruct->PLL.PLLR);
#else /* !RCC_PLLQ_SUPPORT */
        __HAL_RCC_PLL_CONFIG(RCC_OscInitStruct->PLL.PLLSource,
 8001adc:	4b48      	ldr	r3, [pc, #288]	; (8001c00 <HAL_RCC_OscConfig+0x604>)
 8001ade:	68db      	ldr	r3, [r3, #12]
 8001ae0:	4a4c      	ldr	r2, [pc, #304]	; (8001c14 <HAL_RCC_OscConfig+0x618>)
 8001ae2:	4013      	ands	r3, r2
 8001ae4:	0019      	movs	r1, r3
 8001ae6:	687b      	ldr	r3, [r7, #4]
 8001ae8:	6a1a      	ldr	r2, [r3, #32]
 8001aea:	687b      	ldr	r3, [r7, #4]
 8001aec:	6a5b      	ldr	r3, [r3, #36]	; 0x24
 8001aee:	431a      	orrs	r2, r3
 8001af0:	687b      	ldr	r3, [r7, #4]
 8001af2:	6a9b      	ldr	r3, [r3, #40]	; 0x28
 8001af4:	021b      	lsls	r3, r3, #8
 8001af6:	431a      	orrs	r2, r3
 8001af8:	687b      	ldr	r3, [r7, #4]
 8001afa:	6adb      	ldr	r3, [r3, #44]	; 0x2c
 8001afc:	431a      	orrs	r2, r3
 8001afe:	687b      	ldr	r3, [r7, #4]
 8001b00:	6b1b      	ldr	r3, [r3, #48]	; 0x30
 8001b02:	431a      	orrs	r2, r3
 8001b04:	4b3e      	ldr	r3, [pc, #248]	; (8001c00 <HAL_RCC_OscConfig+0x604>)
 8001b06:	430a      	orrs	r2, r1
 8001b08:	60da      	str	r2, [r3, #12]
                             RCC_OscInitStruct->PLL.PLLP,
                             RCC_OscInitStruct->PLL.PLLR);
#endif /* RCC_PLLQ_SUPPORT */

        /* Enable the main PLL. */
        __HAL_RCC_PLL_ENABLE();
 8001b0a:	4b3d      	ldr	r3, [pc, #244]	; (8001c00 <HAL_RCC_OscConfig+0x604>)
 8001b0c:	681a      	ldr	r2, [r3, #0]
 8001b0e:	4b3c      	ldr	r3, [pc, #240]	; (8001c00 <HAL_RCC_OscConfig+0x604>)
 8001b10:	2180      	movs	r1, #128	; 0x80
 8001b12:	0449      	lsls	r1, r1, #17
 8001b14:	430a      	orrs	r2, r1
 8001b16:	601a      	str	r2, [r3, #0]

        /* Enable PLLR Clock output. */
        __HAL_RCC_PLLCLKOUT_ENABLE(RCC_PLLRCLK);
 8001b18:	4b39      	ldr	r3, [pc, #228]	; (8001c00 <HAL_RCC_OscConfig+0x604>)
 8001b1a:	68da      	ldr	r2, [r3, #12]
 8001b1c:	4b38      	ldr	r3, [pc, #224]	; (8001c00 <HAL_RCC_OscConfig+0x604>)
 8001b1e:	2180      	movs	r1, #128	; 0x80
 8001b20:	0549      	lsls	r1, r1, #21
 8001b22:	430a      	orrs	r2, r1
 8001b24:	60da      	str	r2, [r3, #12]

        /* Get Start Tick*/
        tickstart = HAL_GetTick();
 8001b26:	f7ff fc6b 	bl	8001400 <HAL_GetTick>
 8001b2a:	0003      	movs	r3, r0
 8001b2c:	613b      	str	r3, [r7, #16]

        /* Wait till PLL is ready */
        while (READ_BIT(RCC->CR, RCC_CR_PLLRDY) == 0U)
 8001b2e:	e008      	b.n	8001b42 <HAL_RCC_OscConfig+0x546>
        {
          if ((HAL_GetTick() - tickstart) > PLL_TIMEOUT_VALUE)
 8001b30:	f7ff fc66 	bl	8001400 <HAL_GetTick>
 8001b34:	0002      	movs	r2, r0
 8001b36:	693b      	ldr	r3, [r7, #16]
 8001b38:	1ad3      	subs	r3, r2, r3
 8001b3a:	2b02      	cmp	r3, #2
 8001b3c:	d901      	bls.n	8001b42 <HAL_RCC_OscConfig+0x546>
          {
            return HAL_TIMEOUT;
 8001b3e:	2303      	movs	r3, #3
 8001b40:	e059      	b.n	8001bf6 <HAL_RCC_OscConfig+0x5fa>
        while (READ_BIT(RCC->CR, RCC_CR_PLLRDY) == 0U)
 8001b42:	4b2f      	ldr	r3, [pc, #188]	; (8001c00 <HAL_RCC_OscConfig+0x604>)
 8001b44:	681a      	ldr	r2, [r3, #0]
 8001b46:	2380      	movs	r3, #128	; 0x80
 8001b48:	049b      	lsls	r3, r3, #18
 8001b4a:	4013      	ands	r3, r2
 8001b4c:	d0f0      	beq.n	8001b30 <HAL_RCC_OscConfig+0x534>
 8001b4e:	e051      	b.n	8001bf4 <HAL_RCC_OscConfig+0x5f8>
        }
      }
      else
      {
        /* Disable the main PLL. */
        __HAL_RCC_PLL_DISABLE();
 8001b50:	4b2b      	ldr	r3, [pc, #172]	; (8001c00 <HAL_RCC_OscConfig+0x604>)
 8001b52:	681a      	ldr	r2, [r3, #0]
 8001b54:	4b2a      	ldr	r3, [pc, #168]	; (8001c00 <HAL_RCC_OscConfig+0x604>)
 8001b56:	492e      	ldr	r1, [pc, #184]	; (8001c10 <HAL_RCC_OscConfig+0x614>)
 8001b58:	400a      	ands	r2, r1
 8001b5a:	601a      	str	r2, [r3, #0]

        /* Get Start Tick*/
        tickstart = HAL_GetTick();
 8001b5c:	f7ff fc50 	bl	8001400 <HAL_GetTick>
 8001b60:	0003      	movs	r3, r0
 8001b62:	613b      	str	r3, [r7, #16]

        /* Wait till PLL is disabled */
        while (READ_BIT(RCC->CR, RCC_CR_PLLRDY) != 0U)
 8001b64:	e008      	b.n	8001b78 <HAL_RCC_OscConfig+0x57c>
        {
          if ((HAL_GetTick() - tickstart) > PLL_TIMEOUT_VALUE)
 8001b66:	f7ff fc4b 	bl	8001400 <HAL_GetTick>
 8001b6a:	0002      	movs	r2, r0
 8001b6c:	693b      	ldr	r3, [r7, #16]
 8001b6e:	1ad3      	subs	r3, r2, r3
 8001b70:	2b02      	cmp	r3, #2
 8001b72:	d901      	bls.n	8001b78 <HAL_RCC_OscConfig+0x57c>
          {
            return HAL_TIMEOUT;
 8001b74:	2303      	movs	r3, #3
 8001b76:	e03e      	b.n	8001bf6 <HAL_RCC_OscConfig+0x5fa>
        while (READ_BIT(RCC->CR, RCC_CR_PLLRDY) != 0U)
 8001b78:	4b21      	ldr	r3, [pc, #132]	; (8001c00 <HAL_RCC_OscConfig+0x604>)
 8001b7a:	681a      	ldr	r2, [r3, #0]
 8001b7c:	2380      	movs	r3, #128	; 0x80
 8001b7e:	049b      	lsls	r3, r3, #18
 8001b80:	4013      	ands	r3, r2
 8001b82:	d1f0      	bne.n	8001b66 <HAL_RCC_OscConfig+0x56a>
        }
        /* Unselect main PLL clock source and disable main PLL outputs to save power */
#if defined(RCC_PLLQ_SUPPORT)
        RCC->PLLCFGR &= ~(RCC_PLLCFGR_PLLSRC | RCC_PLLCFGR_PLLPEN | RCC_PLLCFGR_PLLQEN | RCC_PLLCFGR_PLLREN);
#else
        RCC->PLLCFGR &= ~(RCC_PLLCFGR_PLLSRC | RCC_PLLCFGR_PLLPEN | RCC_PLLCFGR_PLLREN);
 8001b84:	4b1e      	ldr	r3, [pc, #120]	; (8001c00 <HAL_RCC_OscConfig+0x604>)
 8001b86:	68da      	ldr	r2, [r3, #12]
 8001b88:	4b1d      	ldr	r3, [pc, #116]	; (8001c00 <HAL_RCC_OscConfig+0x604>)
 8001b8a:	4923      	ldr	r1, [pc, #140]	; (8001c18 <HAL_RCC_OscConfig+0x61c>)
 8001b8c:	400a      	ands	r2, r1
 8001b8e:	60da      	str	r2, [r3, #12]
 8001b90:	e030      	b.n	8001bf4 <HAL_RCC_OscConfig+0x5f8>
      }
    }
    else
    {
      /* Check if there is a request to disable the PLL used as System clock source */
      if ((RCC_OscInitStruct->PLL.PLLState) == RCC_PLL_OFF)
 8001b92:	687b      	ldr	r3, [r7, #4]
 8001b94:	69db      	ldr	r3, [r3, #28]
 8001b96:	2b01      	cmp	r3, #1
 8001b98:	d101      	bne.n	8001b9e <HAL_RCC_OscConfig+0x5a2>
      {
        return HAL_ERROR;
 8001b9a:	2301      	movs	r3, #1
 8001b9c:	e02b      	b.n	8001bf6 <HAL_RCC_OscConfig+0x5fa>
      }
      else
      {
        /* Do not return HAL_ERROR if request repeats the current configuration */
        temp_pllckcfg = RCC->PLLCFGR;
 8001b9e:	4b18      	ldr	r3, [pc, #96]	; (8001c00 <HAL_RCC_OscConfig+0x604>)
 8001ba0:	68db      	ldr	r3, [r3, #12]
 8001ba2:	617b      	str	r3, [r7, #20]
        if ((READ_BIT(temp_pllckcfg, RCC_PLLCFGR_PLLSRC) != RCC_OscInitStruct->PLL.PLLSource) ||
 8001ba4:	697b      	ldr	r3, [r7, #20]
 8001ba6:	2203      	movs	r2, #3
 8001ba8:	401a      	ands	r2, r3
 8001baa:	687b      	ldr	r3, [r7, #4]
 8001bac:	6a1b      	ldr	r3, [r3, #32]
 8001bae:	429a      	cmp	r2, r3
 8001bb0:	d11e      	bne.n	8001bf0 <HAL_RCC_OscConfig+0x5f4>
            (READ_BIT(temp_pllckcfg, RCC_PLLCFGR_PLLM) != RCC_OscInitStruct->PLL.PLLM) ||
 8001bb2:	697b      	ldr	r3, [r7, #20]
 8001bb4:	2270      	movs	r2, #112	; 0x70
 8001bb6:	401a      	ands	r2, r3
 8001bb8:	687b      	ldr	r3, [r7, #4]
 8001bba:	6a5b      	ldr	r3, [r3, #36]	; 0x24
        if ((READ_BIT(temp_pllckcfg, RCC_PLLCFGR_PLLSRC) != RCC_OscInitStruct->PLL.PLLSource) ||
 8001bbc:	429a      	cmp	r2, r3
 8001bbe:	d117      	bne.n	8001bf0 <HAL_RCC_OscConfig+0x5f4>
            (READ_BIT(temp_pllckcfg, RCC_PLLCFGR_PLLN) != (RCC_OscInitStruct->PLL.PLLN << RCC_PLLCFGR_PLLN_Pos)) ||
 8001bc0:	697a      	ldr	r2, [r7, #20]
 8001bc2:	23fe      	movs	r3, #254	; 0xfe
 8001bc4:	01db      	lsls	r3, r3, #7
 8001bc6:	401a      	ands	r2, r3
 8001bc8:	687b      	ldr	r3, [r7, #4]
 8001bca:	6a9b      	ldr	r3, [r3, #40]	; 0x28
 8001bcc:	021b      	lsls	r3, r3, #8
            (READ_BIT(temp_pllckcfg, RCC_PLLCFGR_PLLM) != RCC_OscInitStruct->PLL.PLLM) ||
 8001bce:	429a      	cmp	r2, r3
 8001bd0:	d10e      	bne.n	8001bf0 <HAL_RCC_OscConfig+0x5f4>
            (READ_BIT(temp_pllckcfg, RCC_PLLCFGR_PLLP) != RCC_OscInitStruct->PLL.PLLP) ||
 8001bd2:	697a      	ldr	r2, [r7, #20]
 8001bd4:	23f8      	movs	r3, #248	; 0xf8
 8001bd6:	039b      	lsls	r3, r3, #14
 8001bd8:	401a      	ands	r2, r3
 8001bda:	687b      	ldr	r3, [r7, #4]
 8001bdc:	6adb      	ldr	r3, [r3, #44]	; 0x2c
            (READ_BIT(temp_pllckcfg, RCC_PLLCFGR_PLLN) != (RCC_OscInitStruct->PLL.PLLN << RCC_PLLCFGR_PLLN_Pos)) ||
 8001bde:	429a      	cmp	r2, r3
 8001be0:	d106      	bne.n	8001bf0 <HAL_RCC_OscConfig+0x5f4>
#if defined (RCC_PLLQ_SUPPORT)
            (READ_BIT(temp_pllckcfg, RCC_PLLCFGR_PLLQ) != RCC_OscInitStruct->PLL.PLLQ) ||
#endif /* RCC_PLLQ_SUPPORT */
            (READ_BIT(temp_pllckcfg, RCC_PLLCFGR_PLLR) != RCC_OscInitStruct->PLL.PLLR))
 8001be2:	697b      	ldr	r3, [r7, #20]
 8001be4:	0f5b      	lsrs	r3, r3, #29
 8001be6:	075a      	lsls	r2, r3, #29
 8001be8:	687b      	ldr	r3, [r7, #4]
 8001bea:	6b1b      	ldr	r3, [r3, #48]	; 0x30
            (READ_BIT(temp_pllckcfg, RCC_PLLCFGR_PLLP) != RCC_OscInitStruct->PLL.PLLP) ||
 8001bec:	429a      	cmp	r2, r3
 8001bee:	d001      	beq.n	8001bf4 <HAL_RCC_OscConfig+0x5f8>
        {
          return HAL_ERROR;
 8001bf0:	2301      	movs	r3, #1
 8001bf2:	e000      	b.n	8001bf6 <HAL_RCC_OscConfig+0x5fa>
        }
      }
    }
  }
  return HAL_OK;
 8001bf4:	2300      	movs	r3, #0
}
 8001bf6:	0018      	movs	r0, r3
 8001bf8:	46bd      	mov	sp, r7
 8001bfa:	b008      	add	sp, #32
 8001bfc:	bd80      	pop	{r7, pc}
 8001bfe:	46c0      	nop			; (mov r8, r8)
 8001c00:	40021000 	.word	0x40021000
 8001c04:	40007000 	.word	0x40007000
 8001c08:	00001388 	.word	0x00001388
 8001c0c:	efffffff 	.word	0xefffffff
 8001c10:	feffffff 	.word	0xfeffffff
 8001c14:	1fc1808c 	.word	0x1fc1808c
 8001c18:	effefffc 	.word	0xeffefffc

08001c1c <HAL_RCC_ClockConfig>:
  *         HPRE[3:0] bits to ensure that HCLK not exceed the maximum allowed frequency
  *         (for more details refer to section above "Initialization/de-initialization functions")
  * @retval None
  */
HAL_StatusTypeDef HAL_RCC_ClockConfig(RCC_ClkInitTypeDef  *RCC_ClkInitStruct, uint32_t FLatency)
{
 8001c1c:	b580      	push	{r7, lr}
 8001c1e:	b084      	sub	sp, #16
 8001c20:	af00      	add	r7, sp, #0
 8001c22:	6078      	str	r0, [r7, #4]
 8001c24:	6039      	str	r1, [r7, #0]
  uint32_t tickstart;

  /* Check Null pointer */
  if (RCC_ClkInitStruct == NULL)
 8001c26:	687b      	ldr	r3, [r7, #4]
 8001c28:	2b00      	cmp	r3, #0
 8001c2a:	d101      	bne.n	8001c30 <HAL_RCC_ClockConfig+0x14>
  {
    return HAL_ERROR;
 8001c2c:	2301      	movs	r3, #1
 8001c2e:	e0e9      	b.n	8001e04 <HAL_RCC_ClockConfig+0x1e8>
  /* To correctly read data from FLASH memory, the number of wait states (LATENCY)
    must be correctly programmed according to the frequency of the FLASH clock
    (HCLK) and the supply voltage of the device. */

  /* Increasing the number of wait states because of higher CPU frequency */
  if (FLatency > __HAL_FLASH_GET_LATENCY())
 8001c30:	4b76      	ldr	r3, [pc, #472]	; (8001e0c <HAL_RCC_ClockConfig+0x1f0>)
 8001c32:	681b      	ldr	r3, [r3, #0]
 8001c34:	2207      	movs	r2, #7
 8001c36:	4013      	ands	r3, r2
 8001c38:	683a      	ldr	r2, [r7, #0]
 8001c3a:	429a      	cmp	r2, r3
 8001c3c:	d91e      	bls.n	8001c7c <HAL_RCC_ClockConfig+0x60>
  {
    /* Program the new number of wait states to the LATENCY bits in the FLASH_ACR register */
    __HAL_FLASH_SET_LATENCY(FLatency);
 8001c3e:	4b73      	ldr	r3, [pc, #460]	; (8001e0c <HAL_RCC_ClockConfig+0x1f0>)
 8001c40:	681b      	ldr	r3, [r3, #0]
 8001c42:	2207      	movs	r2, #7
 8001c44:	4393      	bics	r3, r2
 8001c46:	0019      	movs	r1, r3
 8001c48:	4b70      	ldr	r3, [pc, #448]	; (8001e0c <HAL_RCC_ClockConfig+0x1f0>)
 8001c4a:	683a      	ldr	r2, [r7, #0]
 8001c4c:	430a      	orrs	r2, r1
 8001c4e:	601a      	str	r2, [r3, #0]

    /* Check that the new number of wait states is taken into account to access the Flash
    memory by polling the FLASH_ACR register */
    tickstart = HAL_GetTick();
 8001c50:	f7ff fbd6 	bl	8001400 <HAL_GetTick>
 8001c54:	0003      	movs	r3, r0
 8001c56:	60fb      	str	r3, [r7, #12]

    while ((FLASH->ACR & FLASH_ACR_LATENCY) != FLatency)
 8001c58:	e009      	b.n	8001c6e <HAL_RCC_ClockConfig+0x52>
    {
      if ((HAL_GetTick() - tickstart) > CLOCKSWITCH_TIMEOUT_VALUE)
 8001c5a:	f7ff fbd1 	bl	8001400 <HAL_GetTick>
 8001c5e:	0002      	movs	r2, r0
 8001c60:	68fb      	ldr	r3, [r7, #12]
 8001c62:	1ad3      	subs	r3, r2, r3
 8001c64:	4a6a      	ldr	r2, [pc, #424]	; (8001e10 <HAL_RCC_ClockConfig+0x1f4>)
 8001c66:	4293      	cmp	r3, r2
 8001c68:	d901      	bls.n	8001c6e <HAL_RCC_ClockConfig+0x52>
      {
        return HAL_TIMEOUT;
 8001c6a:	2303      	movs	r3, #3
 8001c6c:	e0ca      	b.n	8001e04 <HAL_RCC_ClockConfig+0x1e8>
    while ((FLASH->ACR & FLASH_ACR_LATENCY) != FLatency)
 8001c6e:	4b67      	ldr	r3, [pc, #412]	; (8001e0c <HAL_RCC_ClockConfig+0x1f0>)
 8001c70:	681b      	ldr	r3, [r3, #0]
 8001c72:	2207      	movs	r2, #7
 8001c74:	4013      	ands	r3, r2
 8001c76:	683a      	ldr	r2, [r7, #0]
 8001c78:	429a      	cmp	r2, r3
 8001c7a:	d1ee      	bne.n	8001c5a <HAL_RCC_ClockConfig+0x3e>
      }
    }
  }

  /*-------------------------- HCLK Configuration --------------------------*/
  if (((RCC_ClkInitStruct->ClockType) & RCC_CLOCKTYPE_HCLK) == RCC_CLOCKTYPE_HCLK)
 8001c7c:	687b      	ldr	r3, [r7, #4]
 8001c7e:	681b      	ldr	r3, [r3, #0]
 8001c80:	2202      	movs	r2, #2
 8001c82:	4013      	ands	r3, r2
 8001c84:	d015      	beq.n	8001cb2 <HAL_RCC_ClockConfig+0x96>
  {
    /* Set the highest APB divider in order to ensure that we do not go through
       a non-spec phase whatever we decrease or increase HCLK. */
    if (((RCC_ClkInitStruct->ClockType) & RCC_CLOCKTYPE_PCLK1) == RCC_CLOCKTYPE_PCLK1)
 8001c86:	687b      	ldr	r3, [r7, #4]
 8001c88:	681b      	ldr	r3, [r3, #0]
 8001c8a:	2204      	movs	r2, #4
 8001c8c:	4013      	ands	r3, r2
 8001c8e:	d006      	beq.n	8001c9e <HAL_RCC_ClockConfig+0x82>
    {
      MODIFY_REG(RCC->CFGR, RCC_CFGR_PPRE, RCC_HCLK_DIV16);
 8001c90:	4b60      	ldr	r3, [pc, #384]	; (8001e14 <HAL_RCC_ClockConfig+0x1f8>)
 8001c92:	689a      	ldr	r2, [r3, #8]
 8001c94:	4b5f      	ldr	r3, [pc, #380]	; (8001e14 <HAL_RCC_ClockConfig+0x1f8>)
 8001c96:	21e0      	movs	r1, #224	; 0xe0
 8001c98:	01c9      	lsls	r1, r1, #7
 8001c9a:	430a      	orrs	r2, r1
 8001c9c:	609a      	str	r2, [r3, #8]
    }

    /* Set the new HCLK clock divider */
    assert_param(IS_RCC_HCLK(RCC_ClkInitStruct->AHBCLKDivider));
    MODIFY_REG(RCC->CFGR, RCC_CFGR_HPRE, RCC_ClkInitStruct->AHBCLKDivider);
 8001c9e:	4b5d      	ldr	r3, [pc, #372]	; (8001e14 <HAL_RCC_ClockConfig+0x1f8>)
 8001ca0:	689b      	ldr	r3, [r3, #8]
 8001ca2:	4a5d      	ldr	r2, [pc, #372]	; (8001e18 <HAL_RCC_ClockConfig+0x1fc>)
 8001ca4:	4013      	ands	r3, r2
 8001ca6:	0019      	movs	r1, r3
 8001ca8:	687b      	ldr	r3, [r7, #4]
 8001caa:	689a      	ldr	r2, [r3, #8]
 8001cac:	4b59      	ldr	r3, [pc, #356]	; (8001e14 <HAL_RCC_ClockConfig+0x1f8>)
 8001cae:	430a      	orrs	r2, r1
 8001cb0:	609a      	str	r2, [r3, #8]
  }

  /*------------------------- SYSCLK Configuration ---------------------------*/
  if (((RCC_ClkInitStruct->ClockType) & RCC_CLOCKTYPE_SYSCLK) == RCC_CLOCKTYPE_SYSCLK)
 8001cb2:	687b      	ldr	r3, [r7, #4]
 8001cb4:	681b      	ldr	r3, [r3, #0]
 8001cb6:	2201      	movs	r2, #1
 8001cb8:	4013      	ands	r3, r2
 8001cba:	d057      	beq.n	8001d6c <HAL_RCC_ClockConfig+0x150>
  {
    assert_param(IS_RCC_SYSCLKSOURCE(RCC_ClkInitStruct->SYSCLKSource));

    /* HSE is selected as System Clock Source */
    if (RCC_ClkInitStruct->SYSCLKSource == RCC_SYSCLKSOURCE_HSE)
 8001cbc:	687b      	ldr	r3, [r7, #4]
 8001cbe:	685b      	ldr	r3, [r3, #4]
 8001cc0:	2b01      	cmp	r3, #1
 8001cc2:	d107      	bne.n	8001cd4 <HAL_RCC_ClockConfig+0xb8>
    {
      /* Check the HSE ready flag */
      if (READ_BIT(RCC->CR, RCC_CR_HSERDY) == 0U)
 8001cc4:	4b53      	ldr	r3, [pc, #332]	; (8001e14 <HAL_RCC_ClockConfig+0x1f8>)
 8001cc6:	681a      	ldr	r2, [r3, #0]
 8001cc8:	2380      	movs	r3, #128	; 0x80
 8001cca:	029b      	lsls	r3, r3, #10
 8001ccc:	4013      	ands	r3, r2
 8001cce:	d12b      	bne.n	8001d28 <HAL_RCC_ClockConfig+0x10c>
      {
        return HAL_ERROR;
 8001cd0:	2301      	movs	r3, #1
 8001cd2:	e097      	b.n	8001e04 <HAL_RCC_ClockConfig+0x1e8>
      }
    }
    /* PLL is selected as System Clock Source */
    else if (RCC_ClkInitStruct->SYSCLKSource == RCC_SYSCLKSOURCE_PLLCLK)
 8001cd4:	687b      	ldr	r3, [r7, #4]
 8001cd6:	685b      	ldr	r3, [r3, #4]
 8001cd8:	2b02      	cmp	r3, #2
 8001cda:	d107      	bne.n	8001cec <HAL_RCC_ClockConfig+0xd0>
    {
      /* Check the PLL ready flag */
      if (READ_BIT(RCC->CR, RCC_CR_PLLRDY) == 0U)
 8001cdc:	4b4d      	ldr	r3, [pc, #308]	; (8001e14 <HAL_RCC_ClockConfig+0x1f8>)
 8001cde:	681a      	ldr	r2, [r3, #0]
 8001ce0:	2380      	movs	r3, #128	; 0x80
 8001ce2:	049b      	lsls	r3, r3, #18
 8001ce4:	4013      	ands	r3, r2
 8001ce6:	d11f      	bne.n	8001d28 <HAL_RCC_ClockConfig+0x10c>
      {
        return HAL_ERROR;
 8001ce8:	2301      	movs	r3, #1
 8001cea:	e08b      	b.n	8001e04 <HAL_RCC_ClockConfig+0x1e8>
      }
    }
    /* HSI is selected as System Clock Source */
    else if (RCC_ClkInitStruct->SYSCLKSource == RCC_SYSCLKSOURCE_HSI)
 8001cec:	687b      	ldr	r3, [r7, #4]
 8001cee:	685b      	ldr	r3, [r3, #4]
 8001cf0:	2b00      	cmp	r3, #0
 8001cf2:	d107      	bne.n	8001d04 <HAL_RCC_ClockConfig+0xe8>
    {
      /* Check the HSI ready flag */
      if (READ_BIT(RCC->CR, RCC_CR_HSIRDY) == 0U)
 8001cf4:	4b47      	ldr	r3, [pc, #284]	; (8001e14 <HAL_RCC_ClockConfig+0x1f8>)
 8001cf6:	681a      	ldr	r2, [r3, #0]
 8001cf8:	2380      	movs	r3, #128	; 0x80
 8001cfa:	00db      	lsls	r3, r3, #3
 8001cfc:	4013      	ands	r3, r2
 8001cfe:	d113      	bne.n	8001d28 <HAL_RCC_ClockConfig+0x10c>
      {
        return HAL_ERROR;
 8001d00:	2301      	movs	r3, #1
 8001d02:	e07f      	b.n	8001e04 <HAL_RCC_ClockConfig+0x1e8>
      }
    }
    /* LSI is selected as System Clock Source */
    else if (RCC_ClkInitStruct->SYSCLKSource == RCC_SYSCLKSOURCE_LSI)
 8001d04:	687b      	ldr	r3, [r7, #4]
 8001d06:	685b      	ldr	r3, [r3, #4]
 8001d08:	2b03      	cmp	r3, #3
 8001d0a:	d106      	bne.n	8001d1a <HAL_RCC_ClockConfig+0xfe>
    {
      /* Check the LSI ready flag */
      if (READ_BIT(RCC->CSR, RCC_CSR_LSIRDY) == 0U)
 8001d0c:	4b41      	ldr	r3, [pc, #260]	; (8001e14 <HAL_RCC_ClockConfig+0x1f8>)
 8001d0e:	6e1b      	ldr	r3, [r3, #96]	; 0x60
 8001d10:	2202      	movs	r2, #2
 8001d12:	4013      	ands	r3, r2
 8001d14:	d108      	bne.n	8001d28 <HAL_RCC_ClockConfig+0x10c>
      {
        return HAL_ERROR;
 8001d16:	2301      	movs	r3, #1
 8001d18:	e074      	b.n	8001e04 <HAL_RCC_ClockConfig+0x1e8>
    }
    /* LSE is selected as System Clock Source */
    else
    {
      /* Check the LSE ready flag */
      if (READ_BIT(RCC->BDCR, RCC_BDCR_LSERDY) == 0U)
 8001d1a:	4b3e      	ldr	r3, [pc, #248]	; (8001e14 <HAL_RCC_ClockConfig+0x1f8>)
 8001d1c:	6ddb      	ldr	r3, [r3, #92]	; 0x5c
 8001d1e:	2202      	movs	r2, #2
 8001d20:	4013      	ands	r3, r2
 8001d22:	d101      	bne.n	8001d28 <HAL_RCC_ClockConfig+0x10c>
      {
        return HAL_ERROR;
 8001d24:	2301      	movs	r3, #1
 8001d26:	e06d      	b.n	8001e04 <HAL_RCC_ClockConfig+0x1e8>
      }
    }
    MODIFY_REG(RCC->CFGR, RCC_CFGR_SW, RCC_ClkInitStruct->SYSCLKSource);
 8001d28:	4b3a      	ldr	r3, [pc, #232]	; (8001e14 <HAL_RCC_ClockConfig+0x1f8>)
 8001d2a:	689b      	ldr	r3, [r3, #8]
 8001d2c:	2207      	movs	r2, #7
 8001d2e:	4393      	bics	r3, r2
 8001d30:	0019      	movs	r1, r3
 8001d32:	687b      	ldr	r3, [r7, #4]
 8001d34:	685a      	ldr	r2, [r3, #4]
 8001d36:	4b37      	ldr	r3, [pc, #220]	; (8001e14 <HAL_RCC_ClockConfig+0x1f8>)
 8001d38:	430a      	orrs	r2, r1
 8001d3a:	609a      	str	r2, [r3, #8]

    /* Get Start Tick*/
    tickstart = HAL_GetTick();
 8001d3c:	f7ff fb60 	bl	8001400 <HAL_GetTick>
 8001d40:	0003      	movs	r3, r0
 8001d42:	60fb      	str	r3, [r7, #12]

    while (__HAL_RCC_GET_SYSCLK_SOURCE() != (RCC_ClkInitStruct->SYSCLKSource << RCC_CFGR_SWS_Pos))
 8001d44:	e009      	b.n	8001d5a <HAL_RCC_ClockConfig+0x13e>
    {
      if ((HAL_GetTick() - tickstart) > CLOCKSWITCH_TIMEOUT_VALUE)
 8001d46:	f7ff fb5b 	bl	8001400 <HAL_GetTick>
 8001d4a:	0002      	movs	r2, r0
 8001d4c:	68fb      	ldr	r3, [r7, #12]
 8001d4e:	1ad3      	subs	r3, r2, r3
 8001d50:	4a2f      	ldr	r2, [pc, #188]	; (8001e10 <HAL_RCC_ClockConfig+0x1f4>)
 8001d52:	4293      	cmp	r3, r2
 8001d54:	d901      	bls.n	8001d5a <HAL_RCC_ClockConfig+0x13e>
      {
        return HAL_TIMEOUT;
 8001d56:	2303      	movs	r3, #3
 8001d58:	e054      	b.n	8001e04 <HAL_RCC_ClockConfig+0x1e8>
    while (__HAL_RCC_GET_SYSCLK_SOURCE() != (RCC_ClkInitStruct->SYSCLKSource << RCC_CFGR_SWS_Pos))
 8001d5a:	4b2e      	ldr	r3, [pc, #184]	; (8001e14 <HAL_RCC_ClockConfig+0x1f8>)
 8001d5c:	689b      	ldr	r3, [r3, #8]
 8001d5e:	2238      	movs	r2, #56	; 0x38
 8001d60:	401a      	ands	r2, r3
 8001d62:	687b      	ldr	r3, [r7, #4]
 8001d64:	685b      	ldr	r3, [r3, #4]
 8001d66:	00db      	lsls	r3, r3, #3
 8001d68:	429a      	cmp	r2, r3
 8001d6a:	d1ec      	bne.n	8001d46 <HAL_RCC_ClockConfig+0x12a>
      }
    }
  }

  /* Decreasing the number of wait states because of lower CPU frequency */
  if (FLatency < __HAL_FLASH_GET_LATENCY())
 8001d6c:	4b27      	ldr	r3, [pc, #156]	; (8001e0c <HAL_RCC_ClockConfig+0x1f0>)
 8001d6e:	681b      	ldr	r3, [r3, #0]
 8001d70:	2207      	movs	r2, #7
 8001d72:	4013      	ands	r3, r2
 8001d74:	683a      	ldr	r2, [r7, #0]
 8001d76:	429a      	cmp	r2, r3
 8001d78:	d21e      	bcs.n	8001db8 <HAL_RCC_ClockConfig+0x19c>
  {
    /* Program the new number of wait states to the LATENCY bits in the FLASH_ACR register */
    __HAL_FLASH_SET_LATENCY(FLatency);
 8001d7a:	4b24      	ldr	r3, [pc, #144]	; (8001e0c <HAL_RCC_ClockConfig+0x1f0>)
 8001d7c:	681b      	ldr	r3, [r3, #0]
 8001d7e:	2207      	movs	r2, #7
 8001d80:	4393      	bics	r3, r2
 8001d82:	0019      	movs	r1, r3
 8001d84:	4b21      	ldr	r3, [pc, #132]	; (8001e0c <HAL_RCC_ClockConfig+0x1f0>)
 8001d86:	683a      	ldr	r2, [r7, #0]
 8001d88:	430a      	orrs	r2, r1
 8001d8a:	601a      	str	r2, [r3, #0]

    /* Check that the new number of wait states is taken into account to access the Flash
    memory by polling the FLASH_ACR register */
    tickstart = HAL_GetTick();
 8001d8c:	f7ff fb38 	bl	8001400 <HAL_GetTick>
 8001d90:	0003      	movs	r3, r0
 8001d92:	60fb      	str	r3, [r7, #12]

    while ((FLASH->ACR & FLASH_ACR_LATENCY) != FLatency)
 8001d94:	e009      	b.n	8001daa <HAL_RCC_ClockConfig+0x18e>
    {
      if ((HAL_GetTick() - tickstart) > CLOCKSWITCH_TIMEOUT_VALUE)
 8001d96:	f7ff fb33 	bl	8001400 <HAL_GetTick>
 8001d9a:	0002      	movs	r2, r0
 8001d9c:	68fb      	ldr	r3, [r7, #12]
 8001d9e:	1ad3      	subs	r3, r2, r3
 8001da0:	4a1b      	ldr	r2, [pc, #108]	; (8001e10 <HAL_RCC_ClockConfig+0x1f4>)
 8001da2:	4293      	cmp	r3, r2
 8001da4:	d901      	bls.n	8001daa <HAL_RCC_ClockConfig+0x18e>
      {
        return HAL_TIMEOUT;
 8001da6:	2303      	movs	r3, #3
 8001da8:	e02c      	b.n	8001e04 <HAL_RCC_ClockConfig+0x1e8>
    while ((FLASH->ACR & FLASH_ACR_LATENCY) != FLatency)
 8001daa:	4b18      	ldr	r3, [pc, #96]	; (8001e0c <HAL_RCC_ClockConfig+0x1f0>)
 8001dac:	681b      	ldr	r3, [r3, #0]
 8001dae:	2207      	movs	r2, #7
 8001db0:	4013      	ands	r3, r2
 8001db2:	683a      	ldr	r2, [r7, #0]
 8001db4:	429a      	cmp	r2, r3
 8001db6:	d1ee      	bne.n	8001d96 <HAL_RCC_ClockConfig+0x17a>
      }
    }
  }

  /*-------------------------- PCLK1 Configuration ---------------------------*/
  if (((RCC_ClkInitStruct->ClockType) & RCC_CLOCKTYPE_PCLK1) == RCC_CLOCKTYPE_PCLK1)
 8001db8:	687b      	ldr	r3, [r7, #4]
 8001dba:	681b      	ldr	r3, [r3, #0]
 8001dbc:	2204      	movs	r2, #4
 8001dbe:	4013      	ands	r3, r2
 8001dc0:	d009      	beq.n	8001dd6 <HAL_RCC_ClockConfig+0x1ba>
  {
    assert_param(IS_RCC_PCLK(RCC_ClkInitStruct->APB1CLKDivider));
    MODIFY_REG(RCC->CFGR, RCC_CFGR_PPRE, RCC_ClkInitStruct->APB1CLKDivider);
 8001dc2:	4b14      	ldr	r3, [pc, #80]	; (8001e14 <HAL_RCC_ClockConfig+0x1f8>)
 8001dc4:	689b      	ldr	r3, [r3, #8]
 8001dc6:	4a15      	ldr	r2, [pc, #84]	; (8001e1c <HAL_RCC_ClockConfig+0x200>)
 8001dc8:	4013      	ands	r3, r2
 8001dca:	0019      	movs	r1, r3
 8001dcc:	687b      	ldr	r3, [r7, #4]
 8001dce:	68da      	ldr	r2, [r3, #12]
 8001dd0:	4b10      	ldr	r3, [pc, #64]	; (8001e14 <HAL_RCC_ClockConfig+0x1f8>)
 8001dd2:	430a      	orrs	r2, r1
 8001dd4:	609a      	str	r2, [r3, #8]
  }

  /* Update the SystemCoreClock global variable */
  SystemCoreClock = (HAL_RCC_GetSysClockFreq() >> ((AHBPrescTable[(RCC->CFGR & RCC_CFGR_HPRE) >> RCC_CFGR_HPRE_Pos]) & 0x1FU));
 8001dd6:	f000 f829 	bl	8001e2c <HAL_RCC_GetSysClockFreq>
 8001dda:	0001      	movs	r1, r0
 8001ddc:	4b0d      	ldr	r3, [pc, #52]	; (8001e14 <HAL_RCC_ClockConfig+0x1f8>)
 8001dde:	689b      	ldr	r3, [r3, #8]
 8001de0:	0a1b      	lsrs	r3, r3, #8
 8001de2:	220f      	movs	r2, #15
 8001de4:	401a      	ands	r2, r3
 8001de6:	4b0e      	ldr	r3, [pc, #56]	; (8001e20 <HAL_RCC_ClockConfig+0x204>)
 8001de8:	0092      	lsls	r2, r2, #2
 8001dea:	58d3      	ldr	r3, [r2, r3]
 8001dec:	221f      	movs	r2, #31
 8001dee:	4013      	ands	r3, r2
 8001df0:	000a      	movs	r2, r1
 8001df2:	40da      	lsrs	r2, r3
 8001df4:	4b0b      	ldr	r3, [pc, #44]	; (8001e24 <HAL_RCC_ClockConfig+0x208>)
 8001df6:	601a      	str	r2, [r3, #0]

  /* Configure the source of time base considering new system clocks settings*/
  return HAL_InitTick(uwTickPrio);
 8001df8:	4b0b      	ldr	r3, [pc, #44]	; (8001e28 <HAL_RCC_ClockConfig+0x20c>)
 8001dfa:	681b      	ldr	r3, [r3, #0]
 8001dfc:	0018      	movs	r0, r3
 8001dfe:	f7ff faa3 	bl	8001348 <HAL_InitTick>
 8001e02:	0003      	movs	r3, r0
}
 8001e04:	0018      	movs	r0, r3
 8001e06:	46bd      	mov	sp, r7
 8001e08:	b004      	add	sp, #16
 8001e0a:	bd80      	pop	{r7, pc}
 8001e0c:	40022000 	.word	0x40022000
 8001e10:	00001388 	.word	0x00001388
 8001e14:	40021000 	.word	0x40021000
 8001e18:	fffff0ff 	.word	0xfffff0ff
 8001e1c:	ffff8fff 	.word	0xffff8fff
 8001e20:	08002ae8 	.word	0x08002ae8
 8001e24:	20000000 	.word	0x20000000
 8001e28:	20000004 	.word	0x20000004

08001e2c <HAL_RCC_GetSysClockFreq>:
  *
  *
  * @retval SYSCLK frequency
  */
uint32_t HAL_RCC_GetSysClockFreq(void)
{
 8001e2c:	b580      	push	{r7, lr}
 8001e2e:	b086      	sub	sp, #24
 8001e30:	af00      	add	r7, sp, #0
  uint32_t pllvco, pllsource, pllr, pllm, hsidiv;
  uint32_t sysclockfreq;

  if (__HAL_RCC_GET_SYSCLK_SOURCE() == RCC_SYSCLKSOURCE_STATUS_HSI)
 8001e32:	4b3c      	ldr	r3, [pc, #240]	; (8001f24 <HAL_RCC_GetSysClockFreq+0xf8>)
 8001e34:	689b      	ldr	r3, [r3, #8]
 8001e36:	2238      	movs	r2, #56	; 0x38
 8001e38:	4013      	ands	r3, r2
 8001e3a:	d10f      	bne.n	8001e5c <HAL_RCC_GetSysClockFreq+0x30>
  {
    /* HSISYS can be derived for HSI16 */
    hsidiv = (1UL << ((READ_BIT(RCC->CR, RCC_CR_HSIDIV)) >> RCC_CR_HSIDIV_Pos));
 8001e3c:	4b39      	ldr	r3, [pc, #228]	; (8001f24 <HAL_RCC_GetSysClockFreq+0xf8>)
 8001e3e:	681b      	ldr	r3, [r3, #0]
 8001e40:	0adb      	lsrs	r3, r3, #11
 8001e42:	2207      	movs	r2, #7
 8001e44:	4013      	ands	r3, r2
 8001e46:	2201      	movs	r2, #1
 8001e48:	409a      	lsls	r2, r3
 8001e4a:	0013      	movs	r3, r2
 8001e4c:	603b      	str	r3, [r7, #0]

    /* HSI used as system clock source */
    sysclockfreq = (HSI_VALUE / hsidiv);
 8001e4e:	6839      	ldr	r1, [r7, #0]
 8001e50:	4835      	ldr	r0, [pc, #212]	; (8001f28 <HAL_RCC_GetSysClockFreq+0xfc>)
 8001e52:	f7fe f955 	bl	8000100 <__udivsi3>
 8001e56:	0003      	movs	r3, r0
 8001e58:	613b      	str	r3, [r7, #16]
 8001e5a:	e05d      	b.n	8001f18 <HAL_RCC_GetSysClockFreq+0xec>
  }
  else if (__HAL_RCC_GET_SYSCLK_SOURCE() == RCC_SYSCLKSOURCE_STATUS_HSE)
 8001e5c:	4b31      	ldr	r3, [pc, #196]	; (8001f24 <HAL_RCC_GetSysClockFreq+0xf8>)
 8001e5e:	689b      	ldr	r3, [r3, #8]
 8001e60:	2238      	movs	r2, #56	; 0x38
 8001e62:	4013      	ands	r3, r2
 8001e64:	2b08      	cmp	r3, #8
 8001e66:	d102      	bne.n	8001e6e <HAL_RCC_GetSysClockFreq+0x42>
  {
    /* HSE used as system clock source */
    sysclockfreq = HSE_VALUE;
 8001e68:	4b30      	ldr	r3, [pc, #192]	; (8001f2c <HAL_RCC_GetSysClockFreq+0x100>)
 8001e6a:	613b      	str	r3, [r7, #16]
 8001e6c:	e054      	b.n	8001f18 <HAL_RCC_GetSysClockFreq+0xec>
  }
  else if (__HAL_RCC_GET_SYSCLK_SOURCE() == RCC_SYSCLKSOURCE_STATUS_PLLCLK)
 8001e6e:	4b2d      	ldr	r3, [pc, #180]	; (8001f24 <HAL_RCC_GetSysClockFreq+0xf8>)
 8001e70:	689b      	ldr	r3, [r3, #8]
 8001e72:	2238      	movs	r2, #56	; 0x38
 8001e74:	4013      	ands	r3, r2
 8001e76:	2b10      	cmp	r3, #16
 8001e78:	d138      	bne.n	8001eec <HAL_RCC_GetSysClockFreq+0xc0>
    /* PLL used as system clock  source */

    /* PLL_VCO = ((HSE_VALUE or HSI_VALUE)/ PLLM) * PLLN
    SYSCLK = PLL_VCO / PLLR
    */
    pllsource = (RCC->PLLCFGR & RCC_PLLCFGR_PLLSRC);
 8001e7a:	4b2a      	ldr	r3, [pc, #168]	; (8001f24 <HAL_RCC_GetSysClockFreq+0xf8>)
 8001e7c:	68db      	ldr	r3, [r3, #12]
 8001e7e:	2203      	movs	r2, #3
 8001e80:	4013      	ands	r3, r2
 8001e82:	60fb      	str	r3, [r7, #12]
    pllm = ((RCC->PLLCFGR & RCC_PLLCFGR_PLLM) >> RCC_PLLCFGR_PLLM_Pos) + 1U ;
 8001e84:	4b27      	ldr	r3, [pc, #156]	; (8001f24 <HAL_RCC_GetSysClockFreq+0xf8>)
 8001e86:	68db      	ldr	r3, [r3, #12]
 8001e88:	091b      	lsrs	r3, r3, #4
 8001e8a:	2207      	movs	r2, #7
 8001e8c:	4013      	ands	r3, r2
 8001e8e:	3301      	adds	r3, #1
 8001e90:	60bb      	str	r3, [r7, #8]

    switch (pllsource)
 8001e92:	68fb      	ldr	r3, [r7, #12]
 8001e94:	2b03      	cmp	r3, #3
 8001e96:	d10d      	bne.n	8001eb4 <HAL_RCC_GetSysClockFreq+0x88>
    {
      case RCC_PLLSOURCE_HSE:  /* HSE used as PLL clock source */
        pllvco = (HSE_VALUE / pllm) * ((RCC->PLLCFGR & RCC_PLLCFGR_PLLN) >> RCC_PLLCFGR_PLLN_Pos);
 8001e98:	68b9      	ldr	r1, [r7, #8]
 8001e9a:	4824      	ldr	r0, [pc, #144]	; (8001f2c <HAL_RCC_GetSysClockFreq+0x100>)
 8001e9c:	f7fe f930 	bl	8000100 <__udivsi3>
 8001ea0:	0003      	movs	r3, r0
 8001ea2:	0019      	movs	r1, r3
 8001ea4:	4b1f      	ldr	r3, [pc, #124]	; (8001f24 <HAL_RCC_GetSysClockFreq+0xf8>)
 8001ea6:	68db      	ldr	r3, [r3, #12]
 8001ea8:	0a1b      	lsrs	r3, r3, #8
 8001eaa:	227f      	movs	r2, #127	; 0x7f
 8001eac:	4013      	ands	r3, r2
 8001eae:	434b      	muls	r3, r1
 8001eb0:	617b      	str	r3, [r7, #20]
        break;
 8001eb2:	e00d      	b.n	8001ed0 <HAL_RCC_GetSysClockFreq+0xa4>

      case RCC_PLLSOURCE_HSI:  /* HSI16 used as PLL clock source */
      default:                 /* HSI16 used as PLL clock source */
        pllvco = (HSI_VALUE / pllm) * ((RCC->PLLCFGR & RCC_PLLCFGR_PLLN) >> RCC_PLLCFGR_PLLN_Pos) ;
 8001eb4:	68b9      	ldr	r1, [r7, #8]
 8001eb6:	481c      	ldr	r0, [pc, #112]	; (8001f28 <HAL_RCC_GetSysClockFreq+0xfc>)
 8001eb8:	f7fe f922 	bl	8000100 <__udivsi3>
 8001ebc:	0003      	movs	r3, r0
 8001ebe:	0019      	movs	r1, r3
 8001ec0:	4b18      	ldr	r3, [pc, #96]	; (8001f24 <HAL_RCC_GetSysClockFreq+0xf8>)
 8001ec2:	68db      	ldr	r3, [r3, #12]
 8001ec4:	0a1b      	lsrs	r3, r3, #8
 8001ec6:	227f      	movs	r2, #127	; 0x7f
 8001ec8:	4013      	ands	r3, r2
 8001eca:	434b      	muls	r3, r1
 8001ecc:	617b      	str	r3, [r7, #20]
        break;
 8001ece:	46c0      	nop			; (mov r8, r8)
    }
    pllr = (((RCC->PLLCFGR & RCC_PLLCFGR_PLLR) >> RCC_PLLCFGR_PLLR_Pos) + 1U);
 8001ed0:	4b14      	ldr	r3, [pc, #80]	; (8001f24 <HAL_RCC_GetSysClockFreq+0xf8>)
 8001ed2:	68db      	ldr	r3, [r3, #12]
 8001ed4:	0f5b      	lsrs	r3, r3, #29
 8001ed6:	2207      	movs	r2, #7
 8001ed8:	4013      	ands	r3, r2
 8001eda:	3301      	adds	r3, #1
 8001edc:	607b      	str	r3, [r7, #4]
    sysclockfreq = pllvco / pllr;
 8001ede:	6879      	ldr	r1, [r7, #4]
 8001ee0:	6978      	ldr	r0, [r7, #20]
 8001ee2:	f7fe f90d 	bl	8000100 <__udivsi3>
 8001ee6:	0003      	movs	r3, r0
 8001ee8:	613b      	str	r3, [r7, #16]
 8001eea:	e015      	b.n	8001f18 <HAL_RCC_GetSysClockFreq+0xec>
  }
  else if (__HAL_RCC_GET_SYSCLK_SOURCE() == RCC_SYSCLKSOURCE_STATUS_LSE)
 8001eec:	4b0d      	ldr	r3, [pc, #52]	; (8001f24 <HAL_RCC_GetSysClockFreq+0xf8>)
 8001eee:	689b      	ldr	r3, [r3, #8]
 8001ef0:	2238      	movs	r2, #56	; 0x38
 8001ef2:	4013      	ands	r3, r2
 8001ef4:	2b20      	cmp	r3, #32
 8001ef6:	d103      	bne.n	8001f00 <HAL_RCC_GetSysClockFreq+0xd4>
  {
    /* LSE used as system clock source */
    sysclockfreq = LSE_VALUE;
 8001ef8:	2380      	movs	r3, #128	; 0x80
 8001efa:	021b      	lsls	r3, r3, #8
 8001efc:	613b      	str	r3, [r7, #16]
 8001efe:	e00b      	b.n	8001f18 <HAL_RCC_GetSysClockFreq+0xec>
  }
  else if (__HAL_RCC_GET_SYSCLK_SOURCE() == RCC_SYSCLKSOURCE_STATUS_LSI)
 8001f00:	4b08      	ldr	r3, [pc, #32]	; (8001f24 <HAL_RCC_GetSysClockFreq+0xf8>)
 8001f02:	689b      	ldr	r3, [r3, #8]
 8001f04:	2238      	movs	r2, #56	; 0x38
 8001f06:	4013      	ands	r3, r2
 8001f08:	2b18      	cmp	r3, #24
 8001f0a:	d103      	bne.n	8001f14 <HAL_RCC_GetSysClockFreq+0xe8>
  {
    /* LSI used as system clock source */
    sysclockfreq = LSI_VALUE;
 8001f0c:	23fa      	movs	r3, #250	; 0xfa
 8001f0e:	01db      	lsls	r3, r3, #7
 8001f10:	613b      	str	r3, [r7, #16]
 8001f12:	e001      	b.n	8001f18 <HAL_RCC_GetSysClockFreq+0xec>
  }
  else
  {
    sysclockfreq = 0U;
 8001f14:	2300      	movs	r3, #0
 8001f16:	613b      	str	r3, [r7, #16]
  }

  return sysclockfreq;
 8001f18:	693b      	ldr	r3, [r7, #16]
}
 8001f1a:	0018      	movs	r0, r3
 8001f1c:	46bd      	mov	sp, r7
 8001f1e:	b006      	add	sp, #24
 8001f20:	bd80      	pop	{r7, pc}
 8001f22:	46c0      	nop			; (mov r8, r8)
 8001f24:	40021000 	.word	0x40021000
 8001f28:	00f42400 	.word	0x00f42400
 8001f2c:	007a1200 	.word	0x007a1200

08001f30 <HAL_RCCEx_PeriphCLKConfig>:
  *         the RTC clock source: in this case the access to Backup domain is enabled.
  *
  * @retval HAL status
  */
HAL_StatusTypeDef HAL_RCCEx_PeriphCLKConfig(RCC_PeriphCLKInitTypeDef  *PeriphClkInit)
{
 8001f30:	b580      	push	{r7, lr}
 8001f32:	b086      	sub	sp, #24
 8001f34:	af00      	add	r7, sp, #0
 8001f36:	6078      	str	r0, [r7, #4]
  uint32_t tmpregister;
  uint32_t tickstart;
  HAL_StatusTypeDef ret    = HAL_OK;   /* Intermediate status */
 8001f38:	2313      	movs	r3, #19
 8001f3a:	18fb      	adds	r3, r7, r3
 8001f3c:	2200      	movs	r2, #0
 8001f3e:	701a      	strb	r2, [r3, #0]
  HAL_StatusTypeDef status = HAL_OK;   /* Final status */
 8001f40:	2312      	movs	r3, #18
 8001f42:	18fb      	adds	r3, r7, r3
 8001f44:	2200      	movs	r2, #0
 8001f46:	701a      	strb	r2, [r3, #0]

  /* Check the parameters */
  assert_param(IS_RCC_PERIPHCLOCK(PeriphClkInit->PeriphClockSelection));

  /*-------------------------- RTC clock source configuration ----------------------*/
  if ((PeriphClkInit->PeriphClockSelection & RCC_PERIPHCLK_RTC) == RCC_PERIPHCLK_RTC)
 8001f48:	687b      	ldr	r3, [r7, #4]
 8001f4a:	681a      	ldr	r2, [r3, #0]
 8001f4c:	2380      	movs	r3, #128	; 0x80
 8001f4e:	029b      	lsls	r3, r3, #10
 8001f50:	4013      	ands	r3, r2
 8001f52:	d100      	bne.n	8001f56 <HAL_RCCEx_PeriphCLKConfig+0x26>
 8001f54:	e0a3      	b.n	800209e <HAL_RCCEx_PeriphCLKConfig+0x16e>
  {
    FlagStatus       pwrclkchanged = RESET;
 8001f56:	2011      	movs	r0, #17
 8001f58:	183b      	adds	r3, r7, r0
 8001f5a:	2200      	movs	r2, #0
 8001f5c:	701a      	strb	r2, [r3, #0]

    /* Check for RTC Parameters used to output RTCCLK */
    assert_param(IS_RCC_RTCCLKSOURCE(PeriphClkInit->RTCClockSelection));

    /* Enable Power Clock */
    if (__HAL_RCC_PWR_IS_CLK_DISABLED())
 8001f5e:	4b7f      	ldr	r3, [pc, #508]	; (800215c <HAL_RCCEx_PeriphCLKConfig+0x22c>)
 8001f60:	6bda      	ldr	r2, [r3, #60]	; 0x3c
 8001f62:	2380      	movs	r3, #128	; 0x80
 8001f64:	055b      	lsls	r3, r3, #21
 8001f66:	4013      	ands	r3, r2
 8001f68:	d110      	bne.n	8001f8c <HAL_RCCEx_PeriphCLKConfig+0x5c>
    {
      __HAL_RCC_PWR_CLK_ENABLE();
 8001f6a:	4b7c      	ldr	r3, [pc, #496]	; (800215c <HAL_RCCEx_PeriphCLKConfig+0x22c>)
 8001f6c:	6bda      	ldr	r2, [r3, #60]	; 0x3c
 8001f6e:	4b7b      	ldr	r3, [pc, #492]	; (800215c <HAL_RCCEx_PeriphCLKConfig+0x22c>)
 8001f70:	2180      	movs	r1, #128	; 0x80
 8001f72:	0549      	lsls	r1, r1, #21
 8001f74:	430a      	orrs	r2, r1
 8001f76:	63da      	str	r2, [r3, #60]	; 0x3c
 8001f78:	4b78      	ldr	r3, [pc, #480]	; (800215c <HAL_RCCEx_PeriphCLKConfig+0x22c>)
 8001f7a:	6bda      	ldr	r2, [r3, #60]	; 0x3c
 8001f7c:	2380      	movs	r3, #128	; 0x80
 8001f7e:	055b      	lsls	r3, r3, #21
 8001f80:	4013      	ands	r3, r2
 8001f82:	60bb      	str	r3, [r7, #8]
 8001f84:	68bb      	ldr	r3, [r7, #8]
      pwrclkchanged = SET;
 8001f86:	183b      	adds	r3, r7, r0
 8001f88:	2201      	movs	r2, #1
 8001f8a:	701a      	strb	r2, [r3, #0]
    }

    /* Enable write access to Backup domain */
    SET_BIT(PWR->CR1, PWR_CR1_DBP);
 8001f8c:	4b74      	ldr	r3, [pc, #464]	; (8002160 <HAL_RCCEx_PeriphCLKConfig+0x230>)
 8001f8e:	681a      	ldr	r2, [r3, #0]
 8001f90:	4b73      	ldr	r3, [pc, #460]	; (8002160 <HAL_RCCEx_PeriphCLKConfig+0x230>)
 8001f92:	2180      	movs	r1, #128	; 0x80
 8001f94:	0049      	lsls	r1, r1, #1
 8001f96:	430a      	orrs	r2, r1
 8001f98:	601a      	str	r2, [r3, #0]

    /* Wait for Backup domain Write protection disable */
    tickstart = HAL_GetTick();
 8001f9a:	f7ff fa31 	bl	8001400 <HAL_GetTick>
 8001f9e:	0003      	movs	r3, r0
 8001fa0:	60fb      	str	r3, [r7, #12]

    while ((PWR->CR1 & PWR_CR1_DBP) == 0U)
 8001fa2:	e00b      	b.n	8001fbc <HAL_RCCEx_PeriphCLKConfig+0x8c>
    {
      if ((HAL_GetTick() - tickstart) > RCC_DBP_TIMEOUT_VALUE)
 8001fa4:	f7ff fa2c 	bl	8001400 <HAL_GetTick>
 8001fa8:	0002      	movs	r2, r0
 8001faa:	68fb      	ldr	r3, [r7, #12]
 8001fac:	1ad3      	subs	r3, r2, r3
 8001fae:	2b02      	cmp	r3, #2
 8001fb0:	d904      	bls.n	8001fbc <HAL_RCCEx_PeriphCLKConfig+0x8c>
      {
        ret = HAL_TIMEOUT;
 8001fb2:	2313      	movs	r3, #19
 8001fb4:	18fb      	adds	r3, r7, r3
 8001fb6:	2203      	movs	r2, #3
 8001fb8:	701a      	strb	r2, [r3, #0]
        break;
 8001fba:	e005      	b.n	8001fc8 <HAL_RCCEx_PeriphCLKConfig+0x98>
    while ((PWR->CR1 & PWR_CR1_DBP) == 0U)
 8001fbc:	4b68      	ldr	r3, [pc, #416]	; (8002160 <HAL_RCCEx_PeriphCLKConfig+0x230>)
 8001fbe:	681a      	ldr	r2, [r3, #0]
 8001fc0:	2380      	movs	r3, #128	; 0x80
 8001fc2:	005b      	lsls	r3, r3, #1
 8001fc4:	4013      	ands	r3, r2
 8001fc6:	d0ed      	beq.n	8001fa4 <HAL_RCCEx_PeriphCLKConfig+0x74>
      }
    }

    if (ret == HAL_OK)
 8001fc8:	2313      	movs	r3, #19
 8001fca:	18fb      	adds	r3, r7, r3
 8001fcc:	781b      	ldrb	r3, [r3, #0]
 8001fce:	2b00      	cmp	r3, #0
 8001fd0:	d154      	bne.n	800207c <HAL_RCCEx_PeriphCLKConfig+0x14c>
    {
      /* Reset the Backup domain only if the RTC Clock source selection is modified from default */
      tmpregister = READ_BIT(RCC->BDCR, RCC_BDCR_RTCSEL);
 8001fd2:	4b62      	ldr	r3, [pc, #392]	; (800215c <HAL_RCCEx_PeriphCLKConfig+0x22c>)
 8001fd4:	6dda      	ldr	r2, [r3, #92]	; 0x5c
 8001fd6:	23c0      	movs	r3, #192	; 0xc0
 8001fd8:	009b      	lsls	r3, r3, #2
 8001fda:	4013      	ands	r3, r2
 8001fdc:	617b      	str	r3, [r7, #20]

      /* Reset the Backup domain only if the RTC Clock source selection is modified */
      if ((tmpregister != RCC_RTCCLKSOURCE_NONE) && (tmpregister != PeriphClkInit->RTCClockSelection))
 8001fde:	697b      	ldr	r3, [r7, #20]
 8001fe0:	2b00      	cmp	r3, #0
 8001fe2:	d019      	beq.n	8002018 <HAL_RCCEx_PeriphCLKConfig+0xe8>
 8001fe4:	687b      	ldr	r3, [r7, #4]
 8001fe6:	695b      	ldr	r3, [r3, #20]
 8001fe8:	697a      	ldr	r2, [r7, #20]
 8001fea:	429a      	cmp	r2, r3
 8001fec:	d014      	beq.n	8002018 <HAL_RCCEx_PeriphCLKConfig+0xe8>
      {
        /* Store the content of BDCR register before the reset of Backup Domain */
        tmpregister = READ_BIT(RCC->BDCR, ~(RCC_BDCR_RTCSEL));
 8001fee:	4b5b      	ldr	r3, [pc, #364]	; (800215c <HAL_RCCEx_PeriphCLKConfig+0x22c>)
 8001ff0:	6ddb      	ldr	r3, [r3, #92]	; 0x5c
 8001ff2:	4a5c      	ldr	r2, [pc, #368]	; (8002164 <HAL_RCCEx_PeriphCLKConfig+0x234>)
 8001ff4:	4013      	ands	r3, r2
 8001ff6:	617b      	str	r3, [r7, #20]
        /* RTC Clock selection can be changed only if the Backup Domain is reset */
        __HAL_RCC_BACKUPRESET_FORCE();
 8001ff8:	4b58      	ldr	r3, [pc, #352]	; (800215c <HAL_RCCEx_PeriphCLKConfig+0x22c>)
 8001ffa:	6dda      	ldr	r2, [r3, #92]	; 0x5c
 8001ffc:	4b57      	ldr	r3, [pc, #348]	; (800215c <HAL_RCCEx_PeriphCLKConfig+0x22c>)
 8001ffe:	2180      	movs	r1, #128	; 0x80
 8002000:	0249      	lsls	r1, r1, #9
 8002002:	430a      	orrs	r2, r1
 8002004:	65da      	str	r2, [r3, #92]	; 0x5c
        __HAL_RCC_BACKUPRESET_RELEASE();
 8002006:	4b55      	ldr	r3, [pc, #340]	; (800215c <HAL_RCCEx_PeriphCLKConfig+0x22c>)
 8002008:	6dda      	ldr	r2, [r3, #92]	; 0x5c
 800200a:	4b54      	ldr	r3, [pc, #336]	; (800215c <HAL_RCCEx_PeriphCLKConfig+0x22c>)
 800200c:	4956      	ldr	r1, [pc, #344]	; (8002168 <HAL_RCCEx_PeriphCLKConfig+0x238>)
 800200e:	400a      	ands	r2, r1
 8002010:	65da      	str	r2, [r3, #92]	; 0x5c
        /* Restore the Content of BDCR register */
        RCC->BDCR = tmpregister;
 8002012:	4b52      	ldr	r3, [pc, #328]	; (800215c <HAL_RCCEx_PeriphCLKConfig+0x22c>)
 8002014:	697a      	ldr	r2, [r7, #20]
 8002016:	65da      	str	r2, [r3, #92]	; 0x5c
      }

      /* Wait for LSE reactivation if LSE was enable prior to Backup Domain reset */
      if (HAL_IS_BIT_SET(tmpregister, RCC_BDCR_LSEON))
 8002018:	697b      	ldr	r3, [r7, #20]
 800201a:	2201      	movs	r2, #1
 800201c:	4013      	ands	r3, r2
 800201e:	d016      	beq.n	800204e <HAL_RCCEx_PeriphCLKConfig+0x11e>
      {
        /* Get Start Tick*/
        tickstart = HAL_GetTick();
 8002020:	f7ff f9ee 	bl	8001400 <HAL_GetTick>
 8002024:	0003      	movs	r3, r0
 8002026:	60fb      	str	r3, [r7, #12]

        /* Wait till LSE is ready */
        while (READ_BIT(RCC->BDCR, RCC_BDCR_LSERDY) == 0U)
 8002028:	e00c      	b.n	8002044 <HAL_RCCEx_PeriphCLKConfig+0x114>
        {
          if ((HAL_GetTick() - tickstart) > RCC_LSE_TIMEOUT_VALUE)
 800202a:	f7ff f9e9 	bl	8001400 <HAL_GetTick>
 800202e:	0002      	movs	r2, r0
 8002030:	68fb      	ldr	r3, [r7, #12]
 8002032:	1ad3      	subs	r3, r2, r3
 8002034:	4a4d      	ldr	r2, [pc, #308]	; (800216c <HAL_RCCEx_PeriphCLKConfig+0x23c>)
 8002036:	4293      	cmp	r3, r2
 8002038:	d904      	bls.n	8002044 <HAL_RCCEx_PeriphCLKConfig+0x114>
          {
            ret = HAL_TIMEOUT;
 800203a:	2313      	movs	r3, #19
 800203c:	18fb      	adds	r3, r7, r3
 800203e:	2203      	movs	r2, #3
 8002040:	701a      	strb	r2, [r3, #0]
            break;
 8002042:	e004      	b.n	800204e <HAL_RCCEx_PeriphCLKConfig+0x11e>
        while (READ_BIT(RCC->BDCR, RCC_BDCR_LSERDY) == 0U)
 8002044:	4b45      	ldr	r3, [pc, #276]	; (800215c <HAL_RCCEx_PeriphCLKConfig+0x22c>)
 8002046:	6ddb      	ldr	r3, [r3, #92]	; 0x5c
 8002048:	2202      	movs	r2, #2
 800204a:	4013      	ands	r3, r2
 800204c:	d0ed      	beq.n	800202a <HAL_RCCEx_PeriphCLKConfig+0xfa>
          }
        }
      }

      if (ret == HAL_OK)
 800204e:	2313      	movs	r3, #19
 8002050:	18fb      	adds	r3, r7, r3
 8002052:	781b      	ldrb	r3, [r3, #0]
 8002054:	2b00      	cmp	r3, #0
 8002056:	d10a      	bne.n	800206e <HAL_RCCEx_PeriphCLKConfig+0x13e>
      {
        /* Apply new RTC clock source selection */
        __HAL_RCC_RTC_CONFIG(PeriphClkInit->RTCClockSelection);
 8002058:	4b40      	ldr	r3, [pc, #256]	; (800215c <HAL_RCCEx_PeriphCLKConfig+0x22c>)
 800205a:	6ddb      	ldr	r3, [r3, #92]	; 0x5c
 800205c:	4a41      	ldr	r2, [pc, #260]	; (8002164 <HAL_RCCEx_PeriphCLKConfig+0x234>)
 800205e:	4013      	ands	r3, r2
 8002060:	0019      	movs	r1, r3
 8002062:	687b      	ldr	r3, [r7, #4]
 8002064:	695a      	ldr	r2, [r3, #20]
 8002066:	4b3d      	ldr	r3, [pc, #244]	; (800215c <HAL_RCCEx_PeriphCLKConfig+0x22c>)
 8002068:	430a      	orrs	r2, r1
 800206a:	65da      	str	r2, [r3, #92]	; 0x5c
 800206c:	e00c      	b.n	8002088 <HAL_RCCEx_PeriphCLKConfig+0x158>
      }
      else
      {
        /* set overall return value */
        status = ret;
 800206e:	2312      	movs	r3, #18
 8002070:	18fb      	adds	r3, r7, r3
 8002072:	2213      	movs	r2, #19
 8002074:	18ba      	adds	r2, r7, r2
 8002076:	7812      	ldrb	r2, [r2, #0]
 8002078:	701a      	strb	r2, [r3, #0]
 800207a:	e005      	b.n	8002088 <HAL_RCCEx_PeriphCLKConfig+0x158>
      }
    }
    else
    {
      /* set overall return value */
      status = ret;
 800207c:	2312      	movs	r3, #18
 800207e:	18fb      	adds	r3, r7, r3
 8002080:	2213      	movs	r2, #19
 8002082:	18ba      	adds	r2, r7, r2
 8002084:	7812      	ldrb	r2, [r2, #0]
 8002086:	701a      	strb	r2, [r3, #0]
    }

    /* Restore clock configuration if changed */
    if (pwrclkchanged == SET)
 8002088:	2311      	movs	r3, #17
 800208a:	18fb      	adds	r3, r7, r3
 800208c:	781b      	ldrb	r3, [r3, #0]
 800208e:	2b01      	cmp	r3, #1
 8002090:	d105      	bne.n	800209e <HAL_RCCEx_PeriphCLKConfig+0x16e>
    {
      __HAL_RCC_PWR_CLK_DISABLE();
 8002092:	4b32      	ldr	r3, [pc, #200]	; (800215c <HAL_RCCEx_PeriphCLKConfig+0x22c>)
 8002094:	6bda      	ldr	r2, [r3, #60]	; 0x3c
 8002096:	4b31      	ldr	r3, [pc, #196]	; (800215c <HAL_RCCEx_PeriphCLKConfig+0x22c>)
 8002098:	4935      	ldr	r1, [pc, #212]	; (8002170 <HAL_RCCEx_PeriphCLKConfig+0x240>)
 800209a:	400a      	ands	r2, r1
 800209c:	63da      	str	r2, [r3, #60]	; 0x3c
    }
  }

  /*-------------------------- USART1 clock source configuration -------------------*/
  if (((PeriphClkInit->PeriphClockSelection) & RCC_PERIPHCLK_USART1) == RCC_PERIPHCLK_USART1)
 800209e:	687b      	ldr	r3, [r7, #4]
 80020a0:	681b      	ldr	r3, [r3, #0]
 80020a2:	2201      	movs	r2, #1
 80020a4:	4013      	ands	r3, r2
 80020a6:	d009      	beq.n	80020bc <HAL_RCCEx_PeriphCLKConfig+0x18c>
  {
    /* Check the parameters */
    assert_param(IS_RCC_USART1CLKSOURCE(PeriphClkInit->Usart1ClockSelection));

    /* Configure the USART1 clock source */
    __HAL_RCC_USART1_CONFIG(PeriphClkInit->Usart1ClockSelection);
 80020a8:	4b2c      	ldr	r3, [pc, #176]	; (800215c <HAL_RCCEx_PeriphCLKConfig+0x22c>)
 80020aa:	6d5b      	ldr	r3, [r3, #84]	; 0x54
 80020ac:	2203      	movs	r2, #3
 80020ae:	4393      	bics	r3, r2
 80020b0:	0019      	movs	r1, r3
 80020b2:	687b      	ldr	r3, [r7, #4]
 80020b4:	685a      	ldr	r2, [r3, #4]
 80020b6:	4b29      	ldr	r3, [pc, #164]	; (800215c <HAL_RCCEx_PeriphCLKConfig+0x22c>)
 80020b8:	430a      	orrs	r2, r1
 80020ba:	655a      	str	r2, [r3, #84]	; 0x54
    __HAL_RCC_LPTIM2_CONFIG(PeriphClkInit->Lptim2ClockSelection);
  }
#endif /* RCC_CCIPR_LPTIM2SEL */

  /*-------------------------- I2C1 clock source configuration ---------------------*/
  if (((PeriphClkInit->PeriphClockSelection) & RCC_PERIPHCLK_I2C1) == RCC_PERIPHCLK_I2C1)
 80020bc:	687b      	ldr	r3, [r7, #4]
 80020be:	681b      	ldr	r3, [r3, #0]
 80020c0:	2220      	movs	r2, #32
 80020c2:	4013      	ands	r3, r2
 80020c4:	d009      	beq.n	80020da <HAL_RCCEx_PeriphCLKConfig+0x1aa>
  {
    /* Check the parameters */
    assert_param(IS_RCC_I2C1CLKSOURCE(PeriphClkInit->I2c1ClockSelection));

    /* Configure the I2C1 clock source */
    __HAL_RCC_I2C1_CONFIG(PeriphClkInit->I2c1ClockSelection);
 80020c6:	4b25      	ldr	r3, [pc, #148]	; (800215c <HAL_RCCEx_PeriphCLKConfig+0x22c>)
 80020c8:	6d5b      	ldr	r3, [r3, #84]	; 0x54
 80020ca:	4a2a      	ldr	r2, [pc, #168]	; (8002174 <HAL_RCCEx_PeriphCLKConfig+0x244>)
 80020cc:	4013      	ands	r3, r2
 80020ce:	0019      	movs	r1, r3
 80020d0:	687b      	ldr	r3, [r7, #4]
 80020d2:	689a      	ldr	r2, [r3, #8]
 80020d4:	4b21      	ldr	r3, [pc, #132]	; (800215c <HAL_RCCEx_PeriphCLKConfig+0x22c>)
 80020d6:	430a      	orrs	r2, r1
 80020d8:	655a      	str	r2, [r3, #84]	; 0x54
      __HAL_RCC_PLLCLKOUT_ENABLE(RCC_PLLQCLK);
    }
  }
#endif /* RNG */
  /*-------------------------- ADC clock source configuration ----------------------*/
  if (((PeriphClkInit->PeriphClockSelection) & RCC_PERIPHCLK_ADC) == RCC_PERIPHCLK_ADC)
 80020da:	687b      	ldr	r3, [r7, #4]
 80020dc:	681a      	ldr	r2, [r3, #0]
 80020de:	2380      	movs	r3, #128	; 0x80
 80020e0:	01db      	lsls	r3, r3, #7
 80020e2:	4013      	ands	r3, r2
 80020e4:	d015      	beq.n	8002112 <HAL_RCCEx_PeriphCLKConfig+0x1e2>
  {
    /* Check the parameters */
    assert_param(IS_RCC_ADCCLKSOURCE(PeriphClkInit->AdcClockSelection));

    /* Configure the ADC interface clock source */
    __HAL_RCC_ADC_CONFIG(PeriphClkInit->AdcClockSelection);
 80020e6:	4b1d      	ldr	r3, [pc, #116]	; (800215c <HAL_RCCEx_PeriphCLKConfig+0x22c>)
 80020e8:	6d5b      	ldr	r3, [r3, #84]	; 0x54
 80020ea:	009b      	lsls	r3, r3, #2
 80020ec:	0899      	lsrs	r1, r3, #2
 80020ee:	687b      	ldr	r3, [r7, #4]
 80020f0:	691a      	ldr	r2, [r3, #16]
 80020f2:	4b1a      	ldr	r3, [pc, #104]	; (800215c <HAL_RCCEx_PeriphCLKConfig+0x22c>)
 80020f4:	430a      	orrs	r2, r1
 80020f6:	655a      	str	r2, [r3, #84]	; 0x54

    if (PeriphClkInit->AdcClockSelection == RCC_ADCCLKSOURCE_PLLADC)
 80020f8:	687b      	ldr	r3, [r7, #4]
 80020fa:	691a      	ldr	r2, [r3, #16]
 80020fc:	2380      	movs	r3, #128	; 0x80
 80020fe:	05db      	lsls	r3, r3, #23
 8002100:	429a      	cmp	r2, r3
 8002102:	d106      	bne.n	8002112 <HAL_RCCEx_PeriphCLKConfig+0x1e2>
    {
      /* Enable PLLPCLK output */
      __HAL_RCC_PLLCLKOUT_ENABLE(RCC_PLLPCLK);
 8002104:	4b15      	ldr	r3, [pc, #84]	; (800215c <HAL_RCCEx_PeriphCLKConfig+0x22c>)
 8002106:	68da      	ldr	r2, [r3, #12]
 8002108:	4b14      	ldr	r3, [pc, #80]	; (800215c <HAL_RCCEx_PeriphCLKConfig+0x22c>)
 800210a:	2180      	movs	r1, #128	; 0x80
 800210c:	0249      	lsls	r1, r1, #9
 800210e:	430a      	orrs	r2, r1
 8002110:	60da      	str	r2, [r3, #12]
    }
  }
#endif /* RCC_CCIPR_TIM15SEL */

  /*-------------------------- I2S1 clock source configuration ---------------------*/
  if (((PeriphClkInit->PeriphClockSelection) & RCC_PERIPHCLK_I2S1) == RCC_PERIPHCLK_I2S1)
 8002112:	687b      	ldr	r3, [r7, #4]
 8002114:	681a      	ldr	r2, [r3, #0]
 8002116:	2380      	movs	r3, #128	; 0x80
 8002118:	011b      	lsls	r3, r3, #4
 800211a:	4013      	ands	r3, r2
 800211c:	d016      	beq.n	800214c <HAL_RCCEx_PeriphCLKConfig+0x21c>
  {
    /* Check the parameters */
    assert_param(IS_RCC_I2S1CLKSOURCE(PeriphClkInit->I2s1ClockSelection));

    /* Configure the I2S1 clock source */
    __HAL_RCC_I2S1_CONFIG(PeriphClkInit->I2s1ClockSelection);
 800211e:	4b0f      	ldr	r3, [pc, #60]	; (800215c <HAL_RCCEx_PeriphCLKConfig+0x22c>)
 8002120:	6d5b      	ldr	r3, [r3, #84]	; 0x54
 8002122:	4a15      	ldr	r2, [pc, #84]	; (8002178 <HAL_RCCEx_PeriphCLKConfig+0x248>)
 8002124:	4013      	ands	r3, r2
 8002126:	0019      	movs	r1, r3
 8002128:	687b      	ldr	r3, [r7, #4]
 800212a:	68da      	ldr	r2, [r3, #12]
 800212c:	4b0b      	ldr	r3, [pc, #44]	; (800215c <HAL_RCCEx_PeriphCLKConfig+0x22c>)
 800212e:	430a      	orrs	r2, r1
 8002130:	655a      	str	r2, [r3, #84]	; 0x54

    if (PeriphClkInit->I2s1ClockSelection == RCC_I2S1CLKSOURCE_PLL)
 8002132:	687b      	ldr	r3, [r7, #4]
 8002134:	68da      	ldr	r2, [r3, #12]
 8002136:	2380      	movs	r3, #128	; 0x80
 8002138:	01db      	lsls	r3, r3, #7
 800213a:	429a      	cmp	r2, r3
 800213c:	d106      	bne.n	800214c <HAL_RCCEx_PeriphCLKConfig+0x21c>
    {
      /* Enable PLLPCLK output */
      __HAL_RCC_PLLCLKOUT_ENABLE(RCC_PLLPCLK);
 800213e:	4b07      	ldr	r3, [pc, #28]	; (800215c <HAL_RCCEx_PeriphCLKConfig+0x22c>)
 8002140:	68da      	ldr	r2, [r3, #12]
 8002142:	4b06      	ldr	r3, [pc, #24]	; (800215c <HAL_RCCEx_PeriphCLKConfig+0x22c>)
 8002144:	2180      	movs	r1, #128	; 0x80
 8002146:	0249      	lsls	r1, r1, #9
 8002148:	430a      	orrs	r2, r1
 800214a:	60da      	str	r2, [r3, #12]
      __HAL_RCC_PLLCLKOUT_ENABLE(RCC_PLLQCLK);
    }
  }
#endif /* FDCAN1 || FDCAN2 */

  return status;
 800214c:	2312      	movs	r3, #18
 800214e:	18fb      	adds	r3, r7, r3
 8002150:	781b      	ldrb	r3, [r3, #0]
}
 8002152:	0018      	movs	r0, r3
 8002154:	46bd      	mov	sp, r7
 8002156:	b006      	add	sp, #24
 8002158:	bd80      	pop	{r7, pc}
 800215a:	46c0      	nop			; (mov r8, r8)
 800215c:	40021000 	.word	0x40021000
 8002160:	40007000 	.word	0x40007000
 8002164:	fffffcff 	.word	0xfffffcff
 8002168:	fffeffff 	.word	0xfffeffff
 800216c:	00001388 	.word	0x00001388
 8002170:	efffffff 	.word	0xefffffff
 8002174:	ffffcfff 	.word	0xffffcfff
 8002178:	ffff3fff 	.word	0xffff3fff

0800217c <LL_GPIO_SetPinMode>:
{
 800217c:	b580      	push	{r7, lr}
 800217e:	b084      	sub	sp, #16
 8002180:	af00      	add	r7, sp, #0
 8002182:	60f8      	str	r0, [r7, #12]
 8002184:	60b9      	str	r1, [r7, #8]
 8002186:	607a      	str	r2, [r7, #4]
  MODIFY_REG(GPIOx->MODER, ((Pin * Pin) * GPIO_MODER_MODE0), ((Pin * Pin) * Mode));
 8002188:	68fb      	ldr	r3, [r7, #12]
 800218a:	6819      	ldr	r1, [r3, #0]
 800218c:	68bb      	ldr	r3, [r7, #8]
 800218e:	435b      	muls	r3, r3
 8002190:	001a      	movs	r2, r3
 8002192:	0013      	movs	r3, r2
 8002194:	005b      	lsls	r3, r3, #1
 8002196:	189b      	adds	r3, r3, r2
 8002198:	43db      	mvns	r3, r3
 800219a:	400b      	ands	r3, r1
 800219c:	001a      	movs	r2, r3
 800219e:	68bb      	ldr	r3, [r7, #8]
 80021a0:	435b      	muls	r3, r3
 80021a2:	6879      	ldr	r1, [r7, #4]
 80021a4:	434b      	muls	r3, r1
 80021a6:	431a      	orrs	r2, r3
 80021a8:	68fb      	ldr	r3, [r7, #12]
 80021aa:	601a      	str	r2, [r3, #0]
}
 80021ac:	46c0      	nop			; (mov r8, r8)
 80021ae:	46bd      	mov	sp, r7
 80021b0:	b004      	add	sp, #16
 80021b2:	bd80      	pop	{r7, pc}

080021b4 <LL_GPIO_SetPinOutputType>:
{
 80021b4:	b580      	push	{r7, lr}
 80021b6:	b084      	sub	sp, #16
 80021b8:	af00      	add	r7, sp, #0
 80021ba:	60f8      	str	r0, [r7, #12]
 80021bc:	60b9      	str	r1, [r7, #8]
 80021be:	607a      	str	r2, [r7, #4]
  MODIFY_REG(GPIOx->OTYPER, PinMask, (PinMask * OutputType));
 80021c0:	68fb      	ldr	r3, [r7, #12]
 80021c2:	685b      	ldr	r3, [r3, #4]
 80021c4:	68ba      	ldr	r2, [r7, #8]
 80021c6:	43d2      	mvns	r2, r2
 80021c8:	401a      	ands	r2, r3
 80021ca:	68bb      	ldr	r3, [r7, #8]
 80021cc:	6879      	ldr	r1, [r7, #4]
 80021ce:	434b      	muls	r3, r1
 80021d0:	431a      	orrs	r2, r3
 80021d2:	68fb      	ldr	r3, [r7, #12]
 80021d4:	605a      	str	r2, [r3, #4]
}
 80021d6:	46c0      	nop			; (mov r8, r8)
 80021d8:	46bd      	mov	sp, r7
 80021da:	b004      	add	sp, #16
 80021dc:	bd80      	pop	{r7, pc}

080021de <LL_GPIO_SetPinSpeed>:
{
 80021de:	b580      	push	{r7, lr}
 80021e0:	b084      	sub	sp, #16
 80021e2:	af00      	add	r7, sp, #0
 80021e4:	60f8      	str	r0, [r7, #12]
 80021e6:	60b9      	str	r1, [r7, #8]
 80021e8:	607a      	str	r2, [r7, #4]
  MODIFY_REG(GPIOx->OSPEEDR, ((Pin * Pin) * GPIO_OSPEEDR_OSPEED0), ((Pin * Pin) * Speed));
 80021ea:	68fb      	ldr	r3, [r7, #12]
 80021ec:	6899      	ldr	r1, [r3, #8]
 80021ee:	68bb      	ldr	r3, [r7, #8]
 80021f0:	435b      	muls	r3, r3
 80021f2:	001a      	movs	r2, r3
 80021f4:	0013      	movs	r3, r2
 80021f6:	005b      	lsls	r3, r3, #1
 80021f8:	189b      	adds	r3, r3, r2
 80021fa:	43db      	mvns	r3, r3
 80021fc:	400b      	ands	r3, r1
 80021fe:	001a      	movs	r2, r3
 8002200:	68bb      	ldr	r3, [r7, #8]
 8002202:	435b      	muls	r3, r3
 8002204:	6879      	ldr	r1, [r7, #4]
 8002206:	434b      	muls	r3, r1
 8002208:	431a      	orrs	r2, r3
 800220a:	68fb      	ldr	r3, [r7, #12]
 800220c:	609a      	str	r2, [r3, #8]
}
 800220e:	46c0      	nop			; (mov r8, r8)
 8002210:	46bd      	mov	sp, r7
 8002212:	b004      	add	sp, #16
 8002214:	bd80      	pop	{r7, pc}

08002216 <LL_GPIO_SetPinPull>:
{
 8002216:	b580      	push	{r7, lr}
 8002218:	b084      	sub	sp, #16
 800221a:	af00      	add	r7, sp, #0
 800221c:	60f8      	str	r0, [r7, #12]
 800221e:	60b9      	str	r1, [r7, #8]
 8002220:	607a      	str	r2, [r7, #4]
  MODIFY_REG(GPIOx->PUPDR, ((Pin * Pin) * GPIO_PUPDR_PUPD0), ((Pin * Pin) * Pull));
 8002222:	68fb      	ldr	r3, [r7, #12]
 8002224:	68d9      	ldr	r1, [r3, #12]
 8002226:	68bb      	ldr	r3, [r7, #8]
 8002228:	435b      	muls	r3, r3
 800222a:	001a      	movs	r2, r3
 800222c:	0013      	movs	r3, r2
 800222e:	005b      	lsls	r3, r3, #1
 8002230:	189b      	adds	r3, r3, r2
 8002232:	43db      	mvns	r3, r3
 8002234:	400b      	ands	r3, r1
 8002236:	001a      	movs	r2, r3
 8002238:	68bb      	ldr	r3, [r7, #8]
 800223a:	435b      	muls	r3, r3
 800223c:	6879      	ldr	r1, [r7, #4]
 800223e:	434b      	muls	r3, r1
 8002240:	431a      	orrs	r2, r3
 8002242:	68fb      	ldr	r3, [r7, #12]
 8002244:	60da      	str	r2, [r3, #12]
}
 8002246:	46c0      	nop			; (mov r8, r8)
 8002248:	46bd      	mov	sp, r7
 800224a:	b004      	add	sp, #16
 800224c:	bd80      	pop	{r7, pc}

0800224e <LL_GPIO_SetAFPin_0_7>:
{
 800224e:	b580      	push	{r7, lr}
 8002250:	b084      	sub	sp, #16
 8002252:	af00      	add	r7, sp, #0
 8002254:	60f8      	str	r0, [r7, #12]
 8002256:	60b9      	str	r1, [r7, #8]
 8002258:	607a      	str	r2, [r7, #4]
  MODIFY_REG(GPIOx->AFR[0], ((((Pin * Pin) * Pin) * Pin) * GPIO_AFRL_AFSEL0),
 800225a:	68fb      	ldr	r3, [r7, #12]
 800225c:	6a19      	ldr	r1, [r3, #32]
 800225e:	68bb      	ldr	r3, [r7, #8]
 8002260:	435b      	muls	r3, r3
 8002262:	68ba      	ldr	r2, [r7, #8]
 8002264:	4353      	muls	r3, r2
 8002266:	68ba      	ldr	r2, [r7, #8]
 8002268:	435a      	muls	r2, r3
 800226a:	0013      	movs	r3, r2
 800226c:	011b      	lsls	r3, r3, #4
 800226e:	1a9b      	subs	r3, r3, r2
 8002270:	43db      	mvns	r3, r3
 8002272:	400b      	ands	r3, r1
 8002274:	001a      	movs	r2, r3
 8002276:	68bb      	ldr	r3, [r7, #8]
 8002278:	435b      	muls	r3, r3
 800227a:	68b9      	ldr	r1, [r7, #8]
 800227c:	434b      	muls	r3, r1
 800227e:	68b9      	ldr	r1, [r7, #8]
 8002280:	434b      	muls	r3, r1
 8002282:	6879      	ldr	r1, [r7, #4]
 8002284:	434b      	muls	r3, r1
 8002286:	431a      	orrs	r2, r3
 8002288:	68fb      	ldr	r3, [r7, #12]
 800228a:	621a      	str	r2, [r3, #32]
}
 800228c:	46c0      	nop			; (mov r8, r8)
 800228e:	46bd      	mov	sp, r7
 8002290:	b004      	add	sp, #16
 8002292:	bd80      	pop	{r7, pc}

08002294 <LL_GPIO_SetAFPin_8_15>:
{
 8002294:	b580      	push	{r7, lr}
 8002296:	b084      	sub	sp, #16
 8002298:	af00      	add	r7, sp, #0
 800229a:	60f8      	str	r0, [r7, #12]
 800229c:	60b9      	str	r1, [r7, #8]
 800229e:	607a      	str	r2, [r7, #4]
  MODIFY_REG(GPIOx->AFR[1], (((((Pin >> 8U) * (Pin >> 8U)) * (Pin >> 8U)) * (Pin >> 8U)) * GPIO_AFRH_AFSEL8),
 80022a0:	68fb      	ldr	r3, [r7, #12]
 80022a2:	6a59      	ldr	r1, [r3, #36]	; 0x24
 80022a4:	68bb      	ldr	r3, [r7, #8]
 80022a6:	0a1b      	lsrs	r3, r3, #8
 80022a8:	68ba      	ldr	r2, [r7, #8]
 80022aa:	0a12      	lsrs	r2, r2, #8
 80022ac:	4353      	muls	r3, r2
 80022ae:	68ba      	ldr	r2, [r7, #8]
 80022b0:	0a12      	lsrs	r2, r2, #8
 80022b2:	4353      	muls	r3, r2
 80022b4:	68ba      	ldr	r2, [r7, #8]
 80022b6:	0a12      	lsrs	r2, r2, #8
 80022b8:	435a      	muls	r2, r3
 80022ba:	0013      	movs	r3, r2
 80022bc:	011b      	lsls	r3, r3, #4
 80022be:	1a9b      	subs	r3, r3, r2
 80022c0:	43db      	mvns	r3, r3
 80022c2:	400b      	ands	r3, r1
 80022c4:	001a      	movs	r2, r3
 80022c6:	68bb      	ldr	r3, [r7, #8]
 80022c8:	0a1b      	lsrs	r3, r3, #8
 80022ca:	68b9      	ldr	r1, [r7, #8]
 80022cc:	0a09      	lsrs	r1, r1, #8
 80022ce:	434b      	muls	r3, r1
 80022d0:	68b9      	ldr	r1, [r7, #8]
 80022d2:	0a09      	lsrs	r1, r1, #8
 80022d4:	434b      	muls	r3, r1
 80022d6:	68b9      	ldr	r1, [r7, #8]
 80022d8:	0a09      	lsrs	r1, r1, #8
 80022da:	434b      	muls	r3, r1
 80022dc:	6879      	ldr	r1, [r7, #4]
 80022de:	434b      	muls	r3, r1
 80022e0:	431a      	orrs	r2, r3
 80022e2:	68fb      	ldr	r3, [r7, #12]
 80022e4:	625a      	str	r2, [r3, #36]	; 0x24
}
 80022e6:	46c0      	nop			; (mov r8, r8)
 80022e8:	46bd      	mov	sp, r7
 80022ea:	b004      	add	sp, #16
 80022ec:	bd80      	pop	{r7, pc}

080022ee <LL_GPIO_Init>:
  * @retval An ErrorStatus enumeration value:
  *          - SUCCESS: GPIO registers are initialized according to GPIO_InitStruct content
  *          - ERROR:   Not applicable
  */
ErrorStatus LL_GPIO_Init(GPIO_TypeDef *GPIOx, LL_GPIO_InitTypeDef *GPIO_InitStruct)
{
 80022ee:	b580      	push	{r7, lr}
 80022f0:	b084      	sub	sp, #16
 80022f2:	af00      	add	r7, sp, #0
 80022f4:	6078      	str	r0, [r7, #4]
 80022f6:	6039      	str	r1, [r7, #0]
  assert_param(IS_LL_GPIO_MODE(GPIO_InitStruct->Mode));
  assert_param(IS_LL_GPIO_PULL(GPIO_InitStruct->Pull));

  /* ------------------------- Configure the port pins ---------------- */
  /* Initialize  pinpos on first pin set */
  pinpos = 0;
 80022f8:	2300      	movs	r3, #0
 80022fa:	60fb      	str	r3, [r7, #12]

  /* Configure the port pins */
  while (((GPIO_InitStruct->Pin) >> pinpos) != 0x00u)
 80022fc:	e047      	b.n	800238e <LL_GPIO_Init+0xa0>
  {
    /* Get current io position */
    currentpin = (GPIO_InitStruct->Pin) & (0x00000001uL << pinpos);
 80022fe:	683b      	ldr	r3, [r7, #0]
 8002300:	681b      	ldr	r3, [r3, #0]
 8002302:	2101      	movs	r1, #1
 8002304:	68fa      	ldr	r2, [r7, #12]
 8002306:	4091      	lsls	r1, r2
 8002308:	000a      	movs	r2, r1
 800230a:	4013      	ands	r3, r2
 800230c:	60bb      	str	r3, [r7, #8]

    if (currentpin != 0x00u)
 800230e:	68bb      	ldr	r3, [r7, #8]
 8002310:	2b00      	cmp	r3, #0
 8002312:	d039      	beq.n	8002388 <LL_GPIO_Init+0x9a>
    {
      if ((GPIO_InitStruct->Mode == LL_GPIO_MODE_OUTPUT) || (GPIO_InitStruct->Mode == LL_GPIO_MODE_ALTERNATE))
 8002314:	683b      	ldr	r3, [r7, #0]
 8002316:	685b      	ldr	r3, [r3, #4]
 8002318:	2b01      	cmp	r3, #1
 800231a:	d003      	beq.n	8002324 <LL_GPIO_Init+0x36>
 800231c:	683b      	ldr	r3, [r7, #0]
 800231e:	685b      	ldr	r3, [r3, #4]
 8002320:	2b02      	cmp	r3, #2
 8002322:	d10d      	bne.n	8002340 <LL_GPIO_Init+0x52>
      {
        /* Check Speed mode parameters */
        assert_param(IS_LL_GPIO_SPEED(GPIO_InitStruct->Speed));

        /* Speed mode configuration */
        LL_GPIO_SetPinSpeed(GPIOx, currentpin, GPIO_InitStruct->Speed);
 8002324:	683b      	ldr	r3, [r7, #0]
 8002326:	689a      	ldr	r2, [r3, #8]
 8002328:	68b9      	ldr	r1, [r7, #8]
 800232a:	687b      	ldr	r3, [r7, #4]
 800232c:	0018      	movs	r0, r3
 800232e:	f7ff ff56 	bl	80021de <LL_GPIO_SetPinSpeed>

        /* Check Output mode parameters */
        assert_param(IS_LL_GPIO_OUTPUT_TYPE(GPIO_InitStruct->OutputType));

        /* Output mode configuration*/
        LL_GPIO_SetPinOutputType(GPIOx, currentpin, GPIO_InitStruct->OutputType);
 8002332:	683b      	ldr	r3, [r7, #0]
 8002334:	68da      	ldr	r2, [r3, #12]
 8002336:	68b9      	ldr	r1, [r7, #8]
 8002338:	687b      	ldr	r3, [r7, #4]
 800233a:	0018      	movs	r0, r3
 800233c:	f7ff ff3a 	bl	80021b4 <LL_GPIO_SetPinOutputType>
      }

      /* Pull-up Pull down resistor configuration*/
      LL_GPIO_SetPinPull(GPIOx, currentpin, GPIO_InitStruct->Pull);
 8002340:	683b      	ldr	r3, [r7, #0]
 8002342:	691a      	ldr	r2, [r3, #16]
 8002344:	68b9      	ldr	r1, [r7, #8]
 8002346:	687b      	ldr	r3, [r7, #4]
 8002348:	0018      	movs	r0, r3
 800234a:	f7ff ff64 	bl	8002216 <LL_GPIO_SetPinPull>

      if (GPIO_InitStruct->Mode == LL_GPIO_MODE_ALTERNATE)
 800234e:	683b      	ldr	r3, [r7, #0]
 8002350:	685b      	ldr	r3, [r3, #4]
 8002352:	2b02      	cmp	r3, #2
 8002354:	d111      	bne.n	800237a <LL_GPIO_Init+0x8c>
      {
        /* Check Alternate parameter */
        assert_param(IS_LL_GPIO_ALTERNATE(GPIO_InitStruct->Alternate));

        /* Speed mode configuration */
        if (currentpin < LL_GPIO_PIN_8)
 8002356:	68bb      	ldr	r3, [r7, #8]
 8002358:	2bff      	cmp	r3, #255	; 0xff
 800235a:	d807      	bhi.n	800236c <LL_GPIO_Init+0x7e>
        {
          LL_GPIO_SetAFPin_0_7(GPIOx, currentpin, GPIO_InitStruct->Alternate);
 800235c:	683b      	ldr	r3, [r7, #0]
 800235e:	695a      	ldr	r2, [r3, #20]
 8002360:	68b9      	ldr	r1, [r7, #8]
 8002362:	687b      	ldr	r3, [r7, #4]
 8002364:	0018      	movs	r0, r3
 8002366:	f7ff ff72 	bl	800224e <LL_GPIO_SetAFPin_0_7>
 800236a:	e006      	b.n	800237a <LL_GPIO_Init+0x8c>
        }
        else
        {
          LL_GPIO_SetAFPin_8_15(GPIOx, currentpin, GPIO_InitStruct->Alternate);
 800236c:	683b      	ldr	r3, [r7, #0]
 800236e:	695a      	ldr	r2, [r3, #20]
 8002370:	68b9      	ldr	r1, [r7, #8]
 8002372:	687b      	ldr	r3, [r7, #4]
 8002374:	0018      	movs	r0, r3
 8002376:	f7ff ff8d 	bl	8002294 <LL_GPIO_SetAFPin_8_15>
        }
      }

      /* Pin Mode configuration */
      LL_GPIO_SetPinMode(GPIOx, currentpin, GPIO_InitStruct->Mode);
 800237a:	683b      	ldr	r3, [r7, #0]
 800237c:	685a      	ldr	r2, [r3, #4]
 800237e:	68b9      	ldr	r1, [r7, #8]
 8002380:	687b      	ldr	r3, [r7, #4]
 8002382:	0018      	movs	r0, r3
 8002384:	f7ff fefa 	bl	800217c <LL_GPIO_SetPinMode>
    }
    pinpos++;
 8002388:	68fb      	ldr	r3, [r7, #12]
 800238a:	3301      	adds	r3, #1
 800238c:	60fb      	str	r3, [r7, #12]
  while (((GPIO_InitStruct->Pin) >> pinpos) != 0x00u)
 800238e:	683b      	ldr	r3, [r7, #0]
 8002390:	681a      	ldr	r2, [r3, #0]
 8002392:	68fb      	ldr	r3, [r7, #12]
 8002394:	40da      	lsrs	r2, r3
 8002396:	1e13      	subs	r3, r2, #0
 8002398:	d1b1      	bne.n	80022fe <LL_GPIO_Init+0x10>
  }

  return (SUCCESS);
 800239a:	2300      	movs	r3, #0
}
 800239c:	0018      	movs	r0, r3
 800239e:	46bd      	mov	sp, r7
 80023a0:	b004      	add	sp, #16
 80023a2:	bd80      	pop	{r7, pc}

080023a4 <LL_RCC_HSI_IsReady>:
  * @brief  Check if HSI clock is ready
  * @rmtoll CR           HSIRDY        LL_RCC_HSI_IsReady
  * @retval State of bit (1 or 0).
  */
__STATIC_INLINE uint32_t LL_RCC_HSI_IsReady(void)
{
 80023a4:	b580      	push	{r7, lr}
 80023a6:	af00      	add	r7, sp, #0
  return ((READ_BIT(RCC->CR, RCC_CR_HSIRDY) == (RCC_CR_HSIRDY)) ? 1UL : 0UL);
 80023a8:	4b07      	ldr	r3, [pc, #28]	; (80023c8 <LL_RCC_HSI_IsReady+0x24>)
 80023aa:	681a      	ldr	r2, [r3, #0]
 80023ac:	2380      	movs	r3, #128	; 0x80
 80023ae:	00db      	lsls	r3, r3, #3
 80023b0:	401a      	ands	r2, r3
 80023b2:	2380      	movs	r3, #128	; 0x80
 80023b4:	00db      	lsls	r3, r3, #3
 80023b6:	429a      	cmp	r2, r3
 80023b8:	d101      	bne.n	80023be <LL_RCC_HSI_IsReady+0x1a>
 80023ba:	2301      	movs	r3, #1
 80023bc:	e000      	b.n	80023c0 <LL_RCC_HSI_IsReady+0x1c>
 80023be:	2300      	movs	r3, #0
}
 80023c0:	0018      	movs	r0, r3
 80023c2:	46bd      	mov	sp, r7
 80023c4:	bd80      	pop	{r7, pc}
 80023c6:	46c0      	nop			; (mov r8, r8)
 80023c8:	40021000 	.word	0x40021000

080023cc <LL_RCC_LSE_IsReady>:
  * @brief  Check if LSE oscillator Ready
  * @rmtoll BDCR         LSERDY        LL_RCC_LSE_IsReady
  * @retval State of bit (1 or 0).
  */
__STATIC_INLINE uint32_t LL_RCC_LSE_IsReady(void)
{
 80023cc:	b580      	push	{r7, lr}
 80023ce:	af00      	add	r7, sp, #0
  return ((READ_BIT(RCC->BDCR, RCC_BDCR_LSERDY) == (RCC_BDCR_LSERDY)) ? 1UL : 0UL);
 80023d0:	4b05      	ldr	r3, [pc, #20]	; (80023e8 <LL_RCC_LSE_IsReady+0x1c>)
 80023d2:	6ddb      	ldr	r3, [r3, #92]	; 0x5c
 80023d4:	2202      	movs	r2, #2
 80023d6:	4013      	ands	r3, r2
 80023d8:	2b02      	cmp	r3, #2
 80023da:	d101      	bne.n	80023e0 <LL_RCC_LSE_IsReady+0x14>
 80023dc:	2301      	movs	r3, #1
 80023de:	e000      	b.n	80023e2 <LL_RCC_LSE_IsReady+0x16>
 80023e0:	2300      	movs	r3, #0
}
 80023e2:	0018      	movs	r0, r3
 80023e4:	46bd      	mov	sp, r7
 80023e6:	bd80      	pop	{r7, pc}
 80023e8:	40021000 	.word	0x40021000

080023ec <LL_RCC_GetSysClkSource>:
  *         @arg @ref LL_RCC_SYS_CLKSOURCE_STATUS_PLL
  *         @arg @ref LL_RCC_SYS_CLKSOURCE_STATUS_LSI
  *         @arg @ref LL_RCC_SYS_CLKSOURCE_STATUS_LSE
  */
__STATIC_INLINE uint32_t LL_RCC_GetSysClkSource(void)
{
 80023ec:	b580      	push	{r7, lr}
 80023ee:	af00      	add	r7, sp, #0
  return (uint32_t)(READ_BIT(RCC->CFGR, RCC_CFGR_SWS));
 80023f0:	4b03      	ldr	r3, [pc, #12]	; (8002400 <LL_RCC_GetSysClkSource+0x14>)
 80023f2:	689b      	ldr	r3, [r3, #8]
 80023f4:	2238      	movs	r2, #56	; 0x38
 80023f6:	4013      	ands	r3, r2
}
 80023f8:	0018      	movs	r0, r3
 80023fa:	46bd      	mov	sp, r7
 80023fc:	bd80      	pop	{r7, pc}
 80023fe:	46c0      	nop			; (mov r8, r8)
 8002400:	40021000 	.word	0x40021000

08002404 <LL_RCC_GetAHBPrescaler>:
  *         @arg @ref LL_RCC_SYSCLK_DIV_128
  *         @arg @ref LL_RCC_SYSCLK_DIV_256
  *         @arg @ref LL_RCC_SYSCLK_DIV_512
  */
__STATIC_INLINE uint32_t LL_RCC_GetAHBPrescaler(void)
{
 8002404:	b580      	push	{r7, lr}
 8002406:	af00      	add	r7, sp, #0
  return (uint32_t)(READ_BIT(RCC->CFGR, RCC_CFGR_HPRE));
 8002408:	4b03      	ldr	r3, [pc, #12]	; (8002418 <LL_RCC_GetAHBPrescaler+0x14>)
 800240a:	689a      	ldr	r2, [r3, #8]
 800240c:	23f0      	movs	r3, #240	; 0xf0
 800240e:	011b      	lsls	r3, r3, #4
 8002410:	4013      	ands	r3, r2
}
 8002412:	0018      	movs	r0, r3
 8002414:	46bd      	mov	sp, r7
 8002416:	bd80      	pop	{r7, pc}
 8002418:	40021000 	.word	0x40021000

0800241c <LL_RCC_GetAPB1Prescaler>:
  *         @arg @ref LL_RCC_APB1_DIV_4
  *         @arg @ref LL_RCC_APB1_DIV_8
  *         @arg @ref LL_RCC_APB1_DIV_16
  */
__STATIC_INLINE uint32_t LL_RCC_GetAPB1Prescaler(void)
{
 800241c:	b580      	push	{r7, lr}
 800241e:	af00      	add	r7, sp, #0
  return (uint32_t)(READ_BIT(RCC->CFGR, RCC_CFGR_PPRE));
 8002420:	4b03      	ldr	r3, [pc, #12]	; (8002430 <LL_RCC_GetAPB1Prescaler+0x14>)
 8002422:	689a      	ldr	r2, [r3, #8]
 8002424:	23e0      	movs	r3, #224	; 0xe0
 8002426:	01db      	lsls	r3, r3, #7
 8002428:	4013      	ands	r3, r2
}
 800242a:	0018      	movs	r0, r3
 800242c:	46bd      	mov	sp, r7
 800242e:	bd80      	pop	{r7, pc}
 8002430:	40021000 	.word	0x40021000

08002434 <LL_RCC_GetUSARTClockSource>:
  *         @arg @ref LL_RCC_USART3_CLKSOURCE_HSI (*)
  *         @arg @ref LL_RCC_USART3_CLKSOURCE_LSE (*)
  * (*) feature not available on all devices
  */
__STATIC_INLINE uint32_t LL_RCC_GetUSARTClockSource(uint32_t USARTx)
{
 8002434:	b580      	push	{r7, lr}
 8002436:	b082      	sub	sp, #8
 8002438:	af00      	add	r7, sp, #0
 800243a:	6078      	str	r0, [r7, #4]
  return (uint32_t)(READ_BIT(RCC->CCIPR, USARTx) | (USARTx << 16U));
 800243c:	4b05      	ldr	r3, [pc, #20]	; (8002454 <LL_RCC_GetUSARTClockSource+0x20>)
 800243e:	6d5b      	ldr	r3, [r3, #84]	; 0x54
 8002440:	687a      	ldr	r2, [r7, #4]
 8002442:	401a      	ands	r2, r3
 8002444:	687b      	ldr	r3, [r7, #4]
 8002446:	041b      	lsls	r3, r3, #16
 8002448:	4313      	orrs	r3, r2
}
 800244a:	0018      	movs	r0, r3
 800244c:	46bd      	mov	sp, r7
 800244e:	b002      	add	sp, #8
 8002450:	bd80      	pop	{r7, pc}
 8002452:	46c0      	nop			; (mov r8, r8)
 8002454:	40021000 	.word	0x40021000

08002458 <LL_RCC_PLL_GetN>:
  * @brief  Get Main PLL multiplication factor for VCO
  * @rmtoll PLLCFGR      PLLN          LL_RCC_PLL_GetN
  * @retval Between 8 and 86
  */
__STATIC_INLINE uint32_t LL_RCC_PLL_GetN(void)
{
 8002458:	b580      	push	{r7, lr}
 800245a:	af00      	add	r7, sp, #0
  return (uint32_t)(READ_BIT(RCC->PLLCFGR, RCC_PLLCFGR_PLLN) >>  RCC_PLLCFGR_PLLN_Pos);
 800245c:	4b03      	ldr	r3, [pc, #12]	; (800246c <LL_RCC_PLL_GetN+0x14>)
 800245e:	68db      	ldr	r3, [r3, #12]
 8002460:	0a1b      	lsrs	r3, r3, #8
 8002462:	227f      	movs	r2, #127	; 0x7f
 8002464:	4013      	ands	r3, r2
}
 8002466:	0018      	movs	r0, r3
 8002468:	46bd      	mov	sp, r7
 800246a:	bd80      	pop	{r7, pc}
 800246c:	40021000 	.word	0x40021000

08002470 <LL_RCC_PLL_GetR>:
  *         @arg @ref LL_RCC_PLLR_DIV_6
  *         @arg @ref LL_RCC_PLLR_DIV_7
  *         @arg @ref LL_RCC_PLLR_DIV_8
  */
__STATIC_INLINE uint32_t LL_RCC_PLL_GetR(void)
{
 8002470:	b580      	push	{r7, lr}
 8002472:	af00      	add	r7, sp, #0
  return (uint32_t)(READ_BIT(RCC->PLLCFGR, RCC_PLLCFGR_PLLR));
 8002474:	4b03      	ldr	r3, [pc, #12]	; (8002484 <LL_RCC_PLL_GetR+0x14>)
 8002476:	68db      	ldr	r3, [r3, #12]
 8002478:	0f5b      	lsrs	r3, r3, #29
 800247a:	075b      	lsls	r3, r3, #29
}
 800247c:	0018      	movs	r0, r3
 800247e:	46bd      	mov	sp, r7
 8002480:	bd80      	pop	{r7, pc}
 8002482:	46c0      	nop			; (mov r8, r8)
 8002484:	40021000 	.word	0x40021000

08002488 <LL_RCC_PLL_GetMainSource>:
  *         @arg @ref LL_RCC_PLLSOURCE_NONE
  *         @arg @ref LL_RCC_PLLSOURCE_HSI
  *         @arg @ref LL_RCC_PLLSOURCE_HSE
  */
__STATIC_INLINE uint32_t LL_RCC_PLL_GetMainSource(void)
{
 8002488:	b580      	push	{r7, lr}
 800248a:	af00      	add	r7, sp, #0
  return (uint32_t)(READ_BIT(RCC->PLLCFGR, RCC_PLLCFGR_PLLSRC));
 800248c:	4b03      	ldr	r3, [pc, #12]	; (800249c <LL_RCC_PLL_GetMainSource+0x14>)
 800248e:	68db      	ldr	r3, [r3, #12]
 8002490:	2203      	movs	r2, #3
 8002492:	4013      	ands	r3, r2
}
 8002494:	0018      	movs	r0, r3
 8002496:	46bd      	mov	sp, r7
 8002498:	bd80      	pop	{r7, pc}
 800249a:	46c0      	nop			; (mov r8, r8)
 800249c:	40021000 	.word	0x40021000

080024a0 <LL_RCC_PLL_GetDivider>:
  *         @arg @ref LL_RCC_PLLM_DIV_6
  *         @arg @ref LL_RCC_PLLM_DIV_7
  *         @arg @ref LL_RCC_PLLM_DIV_8
  */
__STATIC_INLINE uint32_t LL_RCC_PLL_GetDivider(void)
{
 80024a0:	b580      	push	{r7, lr}
 80024a2:	af00      	add	r7, sp, #0
  return (uint32_t)(READ_BIT(RCC->PLLCFGR, RCC_PLLCFGR_PLLM));
 80024a4:	4b03      	ldr	r3, [pc, #12]	; (80024b4 <LL_RCC_PLL_GetDivider+0x14>)
 80024a6:	68db      	ldr	r3, [r3, #12]
 80024a8:	2270      	movs	r2, #112	; 0x70
 80024aa:	4013      	ands	r3, r2
}
 80024ac:	0018      	movs	r0, r3
 80024ae:	46bd      	mov	sp, r7
 80024b0:	bd80      	pop	{r7, pc}
 80024b2:	46c0      	nop			; (mov r8, r8)
 80024b4:	40021000 	.word	0x40021000

080024b8 <LL_RCC_GetSystemClocksFreq>:
  *         configuration based on this function will be incorrect.
  * @param  RCC_Clocks pointer to a @ref LL_RCC_ClocksTypeDef structure which will hold the clocks frequencies
  * @retval None
  */
void LL_RCC_GetSystemClocksFreq(LL_RCC_ClocksTypeDef *RCC_Clocks)
{
 80024b8:	b580      	push	{r7, lr}
 80024ba:	b082      	sub	sp, #8
 80024bc:	af00      	add	r7, sp, #0
 80024be:	6078      	str	r0, [r7, #4]
  /* Get SYSCLK frequency */
  RCC_Clocks->SYSCLK_Frequency = RCC_GetSystemClockFreq();
 80024c0:	f000 f866 	bl	8002590 <RCC_GetSystemClockFreq>
 80024c4:	0002      	movs	r2, r0
 80024c6:	687b      	ldr	r3, [r7, #4]
 80024c8:	601a      	str	r2, [r3, #0]

  /* HCLK clock frequency */
  RCC_Clocks->HCLK_Frequency   = RCC_GetHCLKClockFreq(RCC_Clocks->SYSCLK_Frequency);
 80024ca:	687b      	ldr	r3, [r7, #4]
 80024cc:	681b      	ldr	r3, [r3, #0]
 80024ce:	0018      	movs	r0, r3
 80024d0:	f000 f88c 	bl	80025ec <RCC_GetHCLKClockFreq>
 80024d4:	0002      	movs	r2, r0
 80024d6:	687b      	ldr	r3, [r7, #4]
 80024d8:	605a      	str	r2, [r3, #4]

  /* PCLK1 clock frequency */
  RCC_Clocks->PCLK1_Frequency  = RCC_GetPCLK1ClockFreq(RCC_Clocks->HCLK_Frequency);
 80024da:	687b      	ldr	r3, [r7, #4]
 80024dc:	685b      	ldr	r3, [r3, #4]
 80024de:	0018      	movs	r0, r3
 80024e0:	f000 f89c 	bl	800261c <RCC_GetPCLK1ClockFreq>
 80024e4:	0002      	movs	r2, r0
 80024e6:	687b      	ldr	r3, [r7, #4]
 80024e8:	609a      	str	r2, [r3, #8]
}
 80024ea:	46c0      	nop			; (mov r8, r8)
 80024ec:	46bd      	mov	sp, r7
 80024ee:	b002      	add	sp, #8
 80024f0:	bd80      	pop	{r7, pc}
	...

080024f4 <LL_RCC_GetUSARTClockFreq>:
  *         @arg @ref LL_RCC_USART3_CLKSOURCE
  * @retval USART clock frequency (in Hz)
  *         - @ref  LL_RCC_PERIPH_FREQUENCY_NO indicates that oscillator (HSI or LSE) is not ready
  */
uint32_t LL_RCC_GetUSARTClockFreq(uint32_t USARTxSource)
{
 80024f4:	b580      	push	{r7, lr}
 80024f6:	b084      	sub	sp, #16
 80024f8:	af00      	add	r7, sp, #0
 80024fa:	6078      	str	r0, [r7, #4]
  uint32_t usart_frequency = LL_RCC_PERIPH_FREQUENCY_NO;
 80024fc:	2300      	movs	r3, #0
 80024fe:	60fb      	str	r3, [r7, #12]

  /* Check parameter */
  assert_param(IS_LL_RCC_USART_CLKSOURCE(USARTxSource));

  if (USARTxSource == LL_RCC_USART1_CLKSOURCE)
 8002500:	687b      	ldr	r3, [r7, #4]
 8002502:	2b03      	cmp	r3, #3
 8002504:	d137      	bne.n	8002576 <LL_RCC_GetUSARTClockFreq+0x82>
  {
    /* USART1CLK clock frequency */
    switch (LL_RCC_GetUSARTClockSource(USARTxSource))
 8002506:	687b      	ldr	r3, [r7, #4]
 8002508:	0018      	movs	r0, r3
 800250a:	f7ff ff93 	bl	8002434 <LL_RCC_GetUSARTClockSource>
 800250e:	0003      	movs	r3, r0
 8002510:	4a1b      	ldr	r2, [pc, #108]	; (8002580 <LL_RCC_GetUSARTClockFreq+0x8c>)
 8002512:	4293      	cmp	r3, r2
 8002514:	d016      	beq.n	8002544 <LL_RCC_GetUSARTClockFreq+0x50>
 8002516:	4a1a      	ldr	r2, [pc, #104]	; (8002580 <LL_RCC_GetUSARTClockFreq+0x8c>)
 8002518:	4293      	cmp	r3, r2
 800251a:	d81c      	bhi.n	8002556 <LL_RCC_GetUSARTClockFreq+0x62>
 800251c:	4a19      	ldr	r2, [pc, #100]	; (8002584 <LL_RCC_GetUSARTClockFreq+0x90>)
 800251e:	4293      	cmp	r3, r2
 8002520:	d003      	beq.n	800252a <LL_RCC_GetUSARTClockFreq+0x36>
 8002522:	4a19      	ldr	r2, [pc, #100]	; (8002588 <LL_RCC_GetUSARTClockFreq+0x94>)
 8002524:	4293      	cmp	r3, r2
 8002526:	d005      	beq.n	8002534 <LL_RCC_GetUSARTClockFreq+0x40>
 8002528:	e015      	b.n	8002556 <LL_RCC_GetUSARTClockFreq+0x62>
    {
      case LL_RCC_USART1_CLKSOURCE_SYSCLK: /* USART1 Clock is System Clock */
        usart_frequency = RCC_GetSystemClockFreq();
 800252a:	f000 f831 	bl	8002590 <RCC_GetSystemClockFreq>
 800252e:	0003      	movs	r3, r0
 8002530:	60fb      	str	r3, [r7, #12]
        break;
 8002532:	e020      	b.n	8002576 <LL_RCC_GetUSARTClockFreq+0x82>

      case LL_RCC_USART1_CLKSOURCE_HSI:    /* USART1 Clock is HSI Osc. */
        if (LL_RCC_HSI_IsReady() == 1U)
 8002534:	f7ff ff36 	bl	80023a4 <LL_RCC_HSI_IsReady>
 8002538:	0003      	movs	r3, r0
 800253a:	2b01      	cmp	r3, #1
 800253c:	d118      	bne.n	8002570 <LL_RCC_GetUSARTClockFreq+0x7c>
        {
          usart_frequency = HSI_VALUE;
 800253e:	4b13      	ldr	r3, [pc, #76]	; (800258c <LL_RCC_GetUSARTClockFreq+0x98>)
 8002540:	60fb      	str	r3, [r7, #12]
        }
        break;
 8002542:	e015      	b.n	8002570 <LL_RCC_GetUSARTClockFreq+0x7c>

      case LL_RCC_USART1_CLKSOURCE_LSE:    /* USART1 Clock is LSE Osc. */
        if (LL_RCC_LSE_IsReady() == 1U)
 8002544:	f7ff ff42 	bl	80023cc <LL_RCC_LSE_IsReady>
 8002548:	0003      	movs	r3, r0
 800254a:	2b01      	cmp	r3, #1
 800254c:	d112      	bne.n	8002574 <LL_RCC_GetUSARTClockFreq+0x80>
        {
          usart_frequency = LSE_VALUE;
 800254e:	2380      	movs	r3, #128	; 0x80
 8002550:	021b      	lsls	r3, r3, #8
 8002552:	60fb      	str	r3, [r7, #12]
        }
        break;
 8002554:	e00e      	b.n	8002574 <LL_RCC_GetUSARTClockFreq+0x80>

      case LL_RCC_USART1_CLKSOURCE_PCLK1:  /* USART1 Clock is PCLK1 */
      default:
        usart_frequency = RCC_GetPCLK1ClockFreq(RCC_GetHCLKClockFreq(RCC_GetSystemClockFreq()));
 8002556:	f000 f81b 	bl	8002590 <RCC_GetSystemClockFreq>
 800255a:	0003      	movs	r3, r0
 800255c:	0018      	movs	r0, r3
 800255e:	f000 f845 	bl	80025ec <RCC_GetHCLKClockFreq>
 8002562:	0003      	movs	r3, r0
 8002564:	0018      	movs	r0, r3
 8002566:	f000 f859 	bl	800261c <RCC_GetPCLK1ClockFreq>
 800256a:	0003      	movs	r3, r0
 800256c:	60fb      	str	r3, [r7, #12]
        break;
 800256e:	e002      	b.n	8002576 <LL_RCC_GetUSARTClockFreq+0x82>
        break;
 8002570:	46c0      	nop			; (mov r8, r8)
 8002572:	e000      	b.n	8002576 <LL_RCC_GetUSARTClockFreq+0x82>
        break;
 8002574:	46c0      	nop			; (mov r8, r8)
#endif /* RCC_CCIPR_USART3SEL */
  else
  {
    /* nothing to do */
  }
  return usart_frequency;
 8002576:	68fb      	ldr	r3, [r7, #12]
}
 8002578:	0018      	movs	r0, r3
 800257a:	46bd      	mov	sp, r7
 800257c:	b004      	add	sp, #16
 800257e:	bd80      	pop	{r7, pc}
 8002580:	00030003 	.word	0x00030003
 8002584:	00030001 	.word	0x00030001
 8002588:	00030002 	.word	0x00030002
 800258c:	00f42400 	.word	0x00f42400

08002590 <RCC_GetSystemClockFreq>:
/**
  * @brief  Return SYSTEM clock frequency
  * @retval SYSTEM clock frequency (in Hz)
  */
static uint32_t RCC_GetSystemClockFreq(void)
{
 8002590:	b580      	push	{r7, lr}
 8002592:	b082      	sub	sp, #8
 8002594:	af00      	add	r7, sp, #0
  uint32_t frequency;
  uint32_t hsidiv;

  /* Get SYSCLK source -------------------------------------------------------*/
  switch (LL_RCC_GetSysClkSource())
 8002596:	f7ff ff29 	bl	80023ec <LL_RCC_GetSysClkSource>
 800259a:	0003      	movs	r3, r0
 800259c:	2b08      	cmp	r3, #8
 800259e:	d002      	beq.n	80025a6 <RCC_GetSystemClockFreq+0x16>
 80025a0:	2b10      	cmp	r3, #16
 80025a2:	d003      	beq.n	80025ac <RCC_GetSystemClockFreq+0x1c>
 80025a4:	e007      	b.n	80025b6 <RCC_GetSystemClockFreq+0x26>
  {
    case LL_RCC_SYS_CLKSOURCE_STATUS_HSE:  /* HSE used as system clock  source */
      frequency = HSE_VALUE;
 80025a6:	4b0e      	ldr	r3, [pc, #56]	; (80025e0 <RCC_GetSystemClockFreq+0x50>)
 80025a8:	607b      	str	r3, [r7, #4]
      break;
 80025aa:	e014      	b.n	80025d6 <RCC_GetSystemClockFreq+0x46>

    case LL_RCC_SYS_CLKSOURCE_STATUS_PLL:  /* PLL used as system clock  source */
      frequency = RCC_PLL_GetFreqDomain_SYS();
 80025ac:	f000 f84c 	bl	8002648 <RCC_PLL_GetFreqDomain_SYS>
 80025b0:	0003      	movs	r3, r0
 80025b2:	607b      	str	r3, [r7, #4]
      break;
 80025b4:	e00f      	b.n	80025d6 <RCC_GetSystemClockFreq+0x46>

    case LL_RCC_SYS_CLKSOURCE_STATUS_HSI:  /* HSI used as system clock  source */
    default:
      hsidiv = (1UL << ((READ_BIT(RCC->CR, RCC_CR_HSIDIV)) >> RCC_CR_HSIDIV_Pos));
 80025b6:	4b0b      	ldr	r3, [pc, #44]	; (80025e4 <RCC_GetSystemClockFreq+0x54>)
 80025b8:	681b      	ldr	r3, [r3, #0]
 80025ba:	0adb      	lsrs	r3, r3, #11
 80025bc:	2207      	movs	r2, #7
 80025be:	4013      	ands	r3, r2
 80025c0:	2201      	movs	r2, #1
 80025c2:	409a      	lsls	r2, r3
 80025c4:	0013      	movs	r3, r2
 80025c6:	603b      	str	r3, [r7, #0]
      frequency = (HSI_VALUE / hsidiv);
 80025c8:	6839      	ldr	r1, [r7, #0]
 80025ca:	4807      	ldr	r0, [pc, #28]	; (80025e8 <RCC_GetSystemClockFreq+0x58>)
 80025cc:	f7fd fd98 	bl	8000100 <__udivsi3>
 80025d0:	0003      	movs	r3, r0
 80025d2:	607b      	str	r3, [r7, #4]
      break;
 80025d4:	46c0      	nop			; (mov r8, r8)
  }

  return frequency;
 80025d6:	687b      	ldr	r3, [r7, #4]
}
 80025d8:	0018      	movs	r0, r3
 80025da:	46bd      	mov	sp, r7
 80025dc:	b002      	add	sp, #8
 80025de:	bd80      	pop	{r7, pc}
 80025e0:	007a1200 	.word	0x007a1200
 80025e4:	40021000 	.word	0x40021000
 80025e8:	00f42400 	.word	0x00f42400

080025ec <RCC_GetHCLKClockFreq>:
  * @brief  Return HCLK clock frequency
  * @param  SYSCLK_Frequency SYSCLK clock frequency
  * @retval HCLK clock frequency (in Hz)
  */
static uint32_t RCC_GetHCLKClockFreq(uint32_t SYSCLK_Frequency)
{
 80025ec:	b580      	push	{r7, lr}
 80025ee:	b082      	sub	sp, #8
 80025f0:	af00      	add	r7, sp, #0
 80025f2:	6078      	str	r0, [r7, #4]
  /* HCLK clock frequency */
  return __LL_RCC_CALC_HCLK_FREQ(SYSCLK_Frequency, LL_RCC_GetAHBPrescaler());
 80025f4:	f7ff ff06 	bl	8002404 <LL_RCC_GetAHBPrescaler>
 80025f8:	0003      	movs	r3, r0
 80025fa:	0a1b      	lsrs	r3, r3, #8
 80025fc:	220f      	movs	r2, #15
 80025fe:	401a      	ands	r2, r3
 8002600:	4b05      	ldr	r3, [pc, #20]	; (8002618 <RCC_GetHCLKClockFreq+0x2c>)
 8002602:	0092      	lsls	r2, r2, #2
 8002604:	58d3      	ldr	r3, [r2, r3]
 8002606:	221f      	movs	r2, #31
 8002608:	4013      	ands	r3, r2
 800260a:	687a      	ldr	r2, [r7, #4]
 800260c:	40da      	lsrs	r2, r3
 800260e:	0013      	movs	r3, r2
}
 8002610:	0018      	movs	r0, r3
 8002612:	46bd      	mov	sp, r7
 8002614:	b002      	add	sp, #8
 8002616:	bd80      	pop	{r7, pc}
 8002618:	08002ae8 	.word	0x08002ae8

0800261c <RCC_GetPCLK1ClockFreq>:
  * @brief  Return PCLK1 clock frequency
  * @param  HCLK_Frequency HCLK clock frequency
  * @retval PCLK1 clock frequency (in Hz)
  */
static uint32_t RCC_GetPCLK1ClockFreq(uint32_t HCLK_Frequency)
{
 800261c:	b580      	push	{r7, lr}
 800261e:	b082      	sub	sp, #8
 8002620:	af00      	add	r7, sp, #0
 8002622:	6078      	str	r0, [r7, #4]
  /* PCLK1 clock frequency */
  return __LL_RCC_CALC_PCLK1_FREQ(HCLK_Frequency, LL_RCC_GetAPB1Prescaler());
 8002624:	f7ff fefa 	bl	800241c <LL_RCC_GetAPB1Prescaler>
 8002628:	0003      	movs	r3, r0
 800262a:	0b1a      	lsrs	r2, r3, #12
 800262c:	4b05      	ldr	r3, [pc, #20]	; (8002644 <RCC_GetPCLK1ClockFreq+0x28>)
 800262e:	0092      	lsls	r2, r2, #2
 8002630:	58d3      	ldr	r3, [r2, r3]
 8002632:	221f      	movs	r2, #31
 8002634:	4013      	ands	r3, r2
 8002636:	687a      	ldr	r2, [r7, #4]
 8002638:	40da      	lsrs	r2, r3
 800263a:	0013      	movs	r3, r2
}
 800263c:	0018      	movs	r0, r3
 800263e:	46bd      	mov	sp, r7
 8002640:	b002      	add	sp, #8
 8002642:	bd80      	pop	{r7, pc}
 8002644:	08002b28 	.word	0x08002b28

08002648 <RCC_PLL_GetFreqDomain_SYS>:
/**
  * @brief  Return PLL clock frequency used for system domain
  * @retval PLL clock frequency (in Hz)
  */
static uint32_t RCC_PLL_GetFreqDomain_SYS(void)
{
 8002648:	b590      	push	{r4, r7, lr}
 800264a:	b083      	sub	sp, #12
 800264c:	af00      	add	r7, sp, #0
  uint32_t pllsource;

  /* PLL_VCO = (HSE_VALUE or HSI_VALUE / PLLM) * PLLN
     SYSCLK = PLL_VCO / PLLR
  */
  pllsource = LL_RCC_PLL_GetMainSource();
 800264e:	f7ff ff1b 	bl	8002488 <LL_RCC_PLL_GetMainSource>
 8002652:	0003      	movs	r3, r0
 8002654:	603b      	str	r3, [r7, #0]

  switch (pllsource)
 8002656:	683b      	ldr	r3, [r7, #0]
 8002658:	2b02      	cmp	r3, #2
 800265a:	d003      	beq.n	8002664 <RCC_PLL_GetFreqDomain_SYS+0x1c>
 800265c:	683b      	ldr	r3, [r7, #0]
 800265e:	2b03      	cmp	r3, #3
 8002660:	d003      	beq.n	800266a <RCC_PLL_GetFreqDomain_SYS+0x22>
 8002662:	e005      	b.n	8002670 <RCC_PLL_GetFreqDomain_SYS+0x28>
  {
    case LL_RCC_PLLSOURCE_HSI:  /* HSI used as PLL clock source */
      pllinputfreq = HSI_VALUE;
 8002664:	4b13      	ldr	r3, [pc, #76]	; (80026b4 <RCC_PLL_GetFreqDomain_SYS+0x6c>)
 8002666:	607b      	str	r3, [r7, #4]
      break;
 8002668:	e005      	b.n	8002676 <RCC_PLL_GetFreqDomain_SYS+0x2e>

    case LL_RCC_PLLSOURCE_HSE:  /* HSE used as PLL clock source */
      pllinputfreq = HSE_VALUE;
 800266a:	4b13      	ldr	r3, [pc, #76]	; (80026b8 <RCC_PLL_GetFreqDomain_SYS+0x70>)
 800266c:	607b      	str	r3, [r7, #4]
      break;
 800266e:	e002      	b.n	8002676 <RCC_PLL_GetFreqDomain_SYS+0x2e>

    default:
      pllinputfreq = HSI_VALUE;
 8002670:	4b10      	ldr	r3, [pc, #64]	; (80026b4 <RCC_PLL_GetFreqDomain_SYS+0x6c>)
 8002672:	607b      	str	r3, [r7, #4]
      break;
 8002674:	46c0      	nop			; (mov r8, r8)
  }
  return __LL_RCC_CALC_PLLCLK_FREQ(pllinputfreq, LL_RCC_PLL_GetDivider(),
 8002676:	f7ff feef 	bl	8002458 <LL_RCC_PLL_GetN>
 800267a:	0002      	movs	r2, r0
 800267c:	687b      	ldr	r3, [r7, #4]
 800267e:	4353      	muls	r3, r2
 8002680:	001c      	movs	r4, r3
 8002682:	f7ff ff0d 	bl	80024a0 <LL_RCC_PLL_GetDivider>
 8002686:	0003      	movs	r3, r0
 8002688:	091b      	lsrs	r3, r3, #4
 800268a:	3301      	adds	r3, #1
 800268c:	0019      	movs	r1, r3
 800268e:	0020      	movs	r0, r4
 8002690:	f7fd fd36 	bl	8000100 <__udivsi3>
 8002694:	0003      	movs	r3, r0
 8002696:	001c      	movs	r4, r3
 8002698:	f7ff feea 	bl	8002470 <LL_RCC_PLL_GetR>
 800269c:	0003      	movs	r3, r0
 800269e:	0f5b      	lsrs	r3, r3, #29
 80026a0:	3301      	adds	r3, #1
 80026a2:	0019      	movs	r1, r3
 80026a4:	0020      	movs	r0, r4
 80026a6:	f7fd fd2b 	bl	8000100 <__udivsi3>
 80026aa:	0003      	movs	r3, r0
                                   LL_RCC_PLL_GetN(), LL_RCC_PLL_GetR());
}
 80026ac:	0018      	movs	r0, r3
 80026ae:	46bd      	mov	sp, r7
 80026b0:	b003      	add	sp, #12
 80026b2:	bd90      	pop	{r4, r7, pc}
 80026b4:	00f42400 	.word	0x00f42400
 80026b8:	007a1200 	.word	0x007a1200

080026bc <LL_TIM_SetPrescaler>:
{
 80026bc:	b580      	push	{r7, lr}
 80026be:	b082      	sub	sp, #8
 80026c0:	af00      	add	r7, sp, #0
 80026c2:	6078      	str	r0, [r7, #4]
 80026c4:	6039      	str	r1, [r7, #0]
  WRITE_REG(TIMx->PSC, Prescaler);
 80026c6:	687b      	ldr	r3, [r7, #4]
 80026c8:	683a      	ldr	r2, [r7, #0]
 80026ca:	629a      	str	r2, [r3, #40]	; 0x28
}
 80026cc:	46c0      	nop			; (mov r8, r8)
 80026ce:	46bd      	mov	sp, r7
 80026d0:	b002      	add	sp, #8
 80026d2:	bd80      	pop	{r7, pc}

080026d4 <LL_TIM_SetAutoReload>:
{
 80026d4:	b580      	push	{r7, lr}
 80026d6:	b082      	sub	sp, #8
 80026d8:	af00      	add	r7, sp, #0
 80026da:	6078      	str	r0, [r7, #4]
 80026dc:	6039      	str	r1, [r7, #0]
  WRITE_REG(TIMx->ARR, AutoReload);
 80026de:	687b      	ldr	r3, [r7, #4]
 80026e0:	683a      	ldr	r2, [r7, #0]
 80026e2:	62da      	str	r2, [r3, #44]	; 0x2c
}
 80026e4:	46c0      	nop			; (mov r8, r8)
 80026e6:	46bd      	mov	sp, r7
 80026e8:	b002      	add	sp, #8
 80026ea:	bd80      	pop	{r7, pc}

080026ec <LL_TIM_SetRepetitionCounter>:
{
 80026ec:	b580      	push	{r7, lr}
 80026ee:	b082      	sub	sp, #8
 80026f0:	af00      	add	r7, sp, #0
 80026f2:	6078      	str	r0, [r7, #4]
 80026f4:	6039      	str	r1, [r7, #0]
  WRITE_REG(TIMx->RCR, RepetitionCounter);
 80026f6:	687b      	ldr	r3, [r7, #4]
 80026f8:	683a      	ldr	r2, [r7, #0]
 80026fa:	631a      	str	r2, [r3, #48]	; 0x30
}
 80026fc:	46c0      	nop			; (mov r8, r8)
 80026fe:	46bd      	mov	sp, r7
 8002700:	b002      	add	sp, #8
 8002702:	bd80      	pop	{r7, pc}

08002704 <LL_TIM_GenerateEvent_UPDATE>:
  * @rmtoll EGR          UG            LL_TIM_GenerateEvent_UPDATE
  * @param  TIMx Timer instance
  * @retval None
  */
__STATIC_INLINE void LL_TIM_GenerateEvent_UPDATE(TIM_TypeDef *TIMx)
{
 8002704:	b580      	push	{r7, lr}
 8002706:	b082      	sub	sp, #8
 8002708:	af00      	add	r7, sp, #0
 800270a:	6078      	str	r0, [r7, #4]
  SET_BIT(TIMx->EGR, TIM_EGR_UG);
 800270c:	687b      	ldr	r3, [r7, #4]
 800270e:	695b      	ldr	r3, [r3, #20]
 8002710:	2201      	movs	r2, #1
 8002712:	431a      	orrs	r2, r3
 8002714:	687b      	ldr	r3, [r7, #4]
 8002716:	615a      	str	r2, [r3, #20]
}
 8002718:	46c0      	nop			; (mov r8, r8)
 800271a:	46bd      	mov	sp, r7
 800271c:	b002      	add	sp, #8
 800271e:	bd80      	pop	{r7, pc}

08002720 <LL_TIM_Init>:
  * @retval An ErrorStatus enumeration value:
  *          - SUCCESS: TIMx registers are de-initialized
  *          - ERROR: not applicable
  */
ErrorStatus LL_TIM_Init(TIM_TypeDef *TIMx, const LL_TIM_InitTypeDef *TIM_InitStruct)
{
 8002720:	b580      	push	{r7, lr}
 8002722:	b084      	sub	sp, #16
 8002724:	af00      	add	r7, sp, #0
 8002726:	6078      	str	r0, [r7, #4]
 8002728:	6039      	str	r1, [r7, #0]
  /* Check the parameters */
  assert_param(IS_TIM_INSTANCE(TIMx));
  assert_param(IS_LL_TIM_COUNTERMODE(TIM_InitStruct->CounterMode));
  assert_param(IS_LL_TIM_CLOCKDIVISION(TIM_InitStruct->ClockDivision));

  tmpcr1 = LL_TIM_ReadReg(TIMx, CR1);
 800272a:	687b      	ldr	r3, [r7, #4]
 800272c:	681b      	ldr	r3, [r3, #0]
 800272e:	60fb      	str	r3, [r7, #12]

  if (IS_TIM_COUNTER_MODE_SELECT_INSTANCE(TIMx))
 8002730:	687b      	ldr	r3, [r7, #4]
 8002732:	4a2c      	ldr	r2, [pc, #176]	; (80027e4 <LL_TIM_Init+0xc4>)
 8002734:	4293      	cmp	r3, r2
 8002736:	d003      	beq.n	8002740 <LL_TIM_Init+0x20>
 8002738:	687b      	ldr	r3, [r7, #4]
 800273a:	4a2b      	ldr	r2, [pc, #172]	; (80027e8 <LL_TIM_Init+0xc8>)
 800273c:	4293      	cmp	r3, r2
 800273e:	d107      	bne.n	8002750 <LL_TIM_Init+0x30>
  {
    /* Select the Counter Mode */
    MODIFY_REG(tmpcr1, (TIM_CR1_DIR | TIM_CR1_CMS), TIM_InitStruct->CounterMode);
 8002740:	68fb      	ldr	r3, [r7, #12]
 8002742:	2270      	movs	r2, #112	; 0x70
 8002744:	4393      	bics	r3, r2
 8002746:	001a      	movs	r2, r3
 8002748:	683b      	ldr	r3, [r7, #0]
 800274a:	685b      	ldr	r3, [r3, #4]
 800274c:	4313      	orrs	r3, r2
 800274e:	60fb      	str	r3, [r7, #12]
  }

  if (IS_TIM_CLOCK_DIVISION_INSTANCE(TIMx))
 8002750:	687b      	ldr	r3, [r7, #4]
 8002752:	4a24      	ldr	r2, [pc, #144]	; (80027e4 <LL_TIM_Init+0xc4>)
 8002754:	4293      	cmp	r3, r2
 8002756:	d00f      	beq.n	8002778 <LL_TIM_Init+0x58>
 8002758:	687b      	ldr	r3, [r7, #4]
 800275a:	4a23      	ldr	r2, [pc, #140]	; (80027e8 <LL_TIM_Init+0xc8>)
 800275c:	4293      	cmp	r3, r2
 800275e:	d00b      	beq.n	8002778 <LL_TIM_Init+0x58>
 8002760:	687b      	ldr	r3, [r7, #4]
 8002762:	4a22      	ldr	r2, [pc, #136]	; (80027ec <LL_TIM_Init+0xcc>)
 8002764:	4293      	cmp	r3, r2
 8002766:	d007      	beq.n	8002778 <LL_TIM_Init+0x58>
 8002768:	687b      	ldr	r3, [r7, #4]
 800276a:	4a21      	ldr	r2, [pc, #132]	; (80027f0 <LL_TIM_Init+0xd0>)
 800276c:	4293      	cmp	r3, r2
 800276e:	d003      	beq.n	8002778 <LL_TIM_Init+0x58>
 8002770:	687b      	ldr	r3, [r7, #4]
 8002772:	4a20      	ldr	r2, [pc, #128]	; (80027f4 <LL_TIM_Init+0xd4>)
 8002774:	4293      	cmp	r3, r2
 8002776:	d106      	bne.n	8002786 <LL_TIM_Init+0x66>
  {
    /* Set the clock division */
    MODIFY_REG(tmpcr1, TIM_CR1_CKD, TIM_InitStruct->ClockDivision);
 8002778:	68fb      	ldr	r3, [r7, #12]
 800277a:	4a1f      	ldr	r2, [pc, #124]	; (80027f8 <LL_TIM_Init+0xd8>)
 800277c:	401a      	ands	r2, r3
 800277e:	683b      	ldr	r3, [r7, #0]
 8002780:	68db      	ldr	r3, [r3, #12]
 8002782:	4313      	orrs	r3, r2
 8002784:	60fb      	str	r3, [r7, #12]
  }

  /* Write to TIMx CR1 */
  LL_TIM_WriteReg(TIMx, CR1, tmpcr1);
 8002786:	687b      	ldr	r3, [r7, #4]
 8002788:	68fa      	ldr	r2, [r7, #12]
 800278a:	601a      	str	r2, [r3, #0]

  /* Set the Autoreload value */
  LL_TIM_SetAutoReload(TIMx, TIM_InitStruct->Autoreload);
 800278c:	683b      	ldr	r3, [r7, #0]
 800278e:	689a      	ldr	r2, [r3, #8]
 8002790:	687b      	ldr	r3, [r7, #4]
 8002792:	0011      	movs	r1, r2
 8002794:	0018      	movs	r0, r3
 8002796:	f7ff ff9d 	bl	80026d4 <LL_TIM_SetAutoReload>

  /* Set the Prescaler value */
  LL_TIM_SetPrescaler(TIMx, TIM_InitStruct->Prescaler);
 800279a:	683b      	ldr	r3, [r7, #0]
 800279c:	881b      	ldrh	r3, [r3, #0]
 800279e:	001a      	movs	r2, r3
 80027a0:	687b      	ldr	r3, [r7, #4]
 80027a2:	0011      	movs	r1, r2
 80027a4:	0018      	movs	r0, r3
 80027a6:	f7ff ff89 	bl	80026bc <LL_TIM_SetPrescaler>

  if (IS_TIM_REPETITION_COUNTER_INSTANCE(TIMx))
 80027aa:	687b      	ldr	r3, [r7, #4]
 80027ac:	4a0d      	ldr	r2, [pc, #52]	; (80027e4 <LL_TIM_Init+0xc4>)
 80027ae:	4293      	cmp	r3, r2
 80027b0:	d007      	beq.n	80027c2 <LL_TIM_Init+0xa2>
 80027b2:	687b      	ldr	r3, [r7, #4]
 80027b4:	4a0e      	ldr	r2, [pc, #56]	; (80027f0 <LL_TIM_Init+0xd0>)
 80027b6:	4293      	cmp	r3, r2
 80027b8:	d003      	beq.n	80027c2 <LL_TIM_Init+0xa2>
 80027ba:	687b      	ldr	r3, [r7, #4]
 80027bc:	4a0d      	ldr	r2, [pc, #52]	; (80027f4 <LL_TIM_Init+0xd4>)
 80027be:	4293      	cmp	r3, r2
 80027c0:	d106      	bne.n	80027d0 <LL_TIM_Init+0xb0>
  {
    /* Set the Repetition Counter value */
    LL_TIM_SetRepetitionCounter(TIMx, TIM_InitStruct->RepetitionCounter);
 80027c2:	683b      	ldr	r3, [r7, #0]
 80027c4:	691a      	ldr	r2, [r3, #16]
 80027c6:	687b      	ldr	r3, [r7, #4]
 80027c8:	0011      	movs	r1, r2
 80027ca:	0018      	movs	r0, r3
 80027cc:	f7ff ff8e 	bl	80026ec <LL_TIM_SetRepetitionCounter>
  }

  /* Generate an update event to reload the Prescaler
     and the repetition counter value (if applicable) immediately */
  LL_TIM_GenerateEvent_UPDATE(TIMx);
 80027d0:	687b      	ldr	r3, [r7, #4]
 80027d2:	0018      	movs	r0, r3
 80027d4:	f7ff ff96 	bl	8002704 <LL_TIM_GenerateEvent_UPDATE>

  return SUCCESS;
 80027d8:	2300      	movs	r3, #0
}
 80027da:	0018      	movs	r0, r3
 80027dc:	46bd      	mov	sp, r7
 80027de:	b004      	add	sp, #16
 80027e0:	bd80      	pop	{r7, pc}
 80027e2:	46c0      	nop			; (mov r8, r8)
 80027e4:	40012c00 	.word	0x40012c00
 80027e8:	40000400 	.word	0x40000400
 80027ec:	40002000 	.word	0x40002000
 80027f0:	40014400 	.word	0x40014400
 80027f4:	40014800 	.word	0x40014800
 80027f8:	fffffcff 	.word	0xfffffcff

080027fc <LL_USART_IsEnabled>:
{
 80027fc:	b580      	push	{r7, lr}
 80027fe:	b082      	sub	sp, #8
 8002800:	af00      	add	r7, sp, #0
 8002802:	6078      	str	r0, [r7, #4]
  return ((READ_BIT(USARTx->CR1, USART_CR1_UE) == (USART_CR1_UE)) ? 1UL : 0UL);
 8002804:	687b      	ldr	r3, [r7, #4]
 8002806:	681b      	ldr	r3, [r3, #0]
 8002808:	2201      	movs	r2, #1
 800280a:	4013      	ands	r3, r2
 800280c:	2b01      	cmp	r3, #1
 800280e:	d101      	bne.n	8002814 <LL_USART_IsEnabled+0x18>
 8002810:	2301      	movs	r3, #1
 8002812:	e000      	b.n	8002816 <LL_USART_IsEnabled+0x1a>
 8002814:	2300      	movs	r3, #0
}
 8002816:	0018      	movs	r0, r3
 8002818:	46bd      	mov	sp, r7
 800281a:	b002      	add	sp, #8
 800281c:	bd80      	pop	{r7, pc}

0800281e <LL_USART_SetPrescaler>:
{
 800281e:	b580      	push	{r7, lr}
 8002820:	b082      	sub	sp, #8
 8002822:	af00      	add	r7, sp, #0
 8002824:	6078      	str	r0, [r7, #4]
 8002826:	6039      	str	r1, [r7, #0]
  MODIFY_REG(USARTx->PRESC, USART_PRESC_PRESCALER, (uint16_t)PrescalerValue);
 8002828:	687b      	ldr	r3, [r7, #4]
 800282a:	6adb      	ldr	r3, [r3, #44]	; 0x2c
 800282c:	220f      	movs	r2, #15
 800282e:	4393      	bics	r3, r2
 8002830:	683a      	ldr	r2, [r7, #0]
 8002832:	b292      	uxth	r2, r2
 8002834:	431a      	orrs	r2, r3
 8002836:	687b      	ldr	r3, [r7, #4]
 8002838:	62da      	str	r2, [r3, #44]	; 0x2c
}
 800283a:	46c0      	nop			; (mov r8, r8)
 800283c:	46bd      	mov	sp, r7
 800283e:	b002      	add	sp, #8
 8002840:	bd80      	pop	{r7, pc}
	...

08002844 <LL_USART_SetStopBitsLength>:
{
 8002844:	b580      	push	{r7, lr}
 8002846:	b082      	sub	sp, #8
 8002848:	af00      	add	r7, sp, #0
 800284a:	6078      	str	r0, [r7, #4]
 800284c:	6039      	str	r1, [r7, #0]
  MODIFY_REG(USARTx->CR2, USART_CR2_STOP, StopBits);
 800284e:	687b      	ldr	r3, [r7, #4]
 8002850:	685b      	ldr	r3, [r3, #4]
 8002852:	4a05      	ldr	r2, [pc, #20]	; (8002868 <LL_USART_SetStopBitsLength+0x24>)
 8002854:	401a      	ands	r2, r3
 8002856:	683b      	ldr	r3, [r7, #0]
 8002858:	431a      	orrs	r2, r3
 800285a:	687b      	ldr	r3, [r7, #4]
 800285c:	605a      	str	r2, [r3, #4]
}
 800285e:	46c0      	nop			; (mov r8, r8)
 8002860:	46bd      	mov	sp, r7
 8002862:	b002      	add	sp, #8
 8002864:	bd80      	pop	{r7, pc}
 8002866:	46c0      	nop			; (mov r8, r8)
 8002868:	ffffcfff 	.word	0xffffcfff

0800286c <LL_USART_SetHWFlowCtrl>:
{
 800286c:	b580      	push	{r7, lr}
 800286e:	b082      	sub	sp, #8
 8002870:	af00      	add	r7, sp, #0
 8002872:	6078      	str	r0, [r7, #4]
 8002874:	6039      	str	r1, [r7, #0]
  MODIFY_REG(USARTx->CR3, USART_CR3_RTSE | USART_CR3_CTSE, HardwareFlowControl);
 8002876:	687b      	ldr	r3, [r7, #4]
 8002878:	689b      	ldr	r3, [r3, #8]
 800287a:	4a05      	ldr	r2, [pc, #20]	; (8002890 <LL_USART_SetHWFlowCtrl+0x24>)
 800287c:	401a      	ands	r2, r3
 800287e:	683b      	ldr	r3, [r7, #0]
 8002880:	431a      	orrs	r2, r3
 8002882:	687b      	ldr	r3, [r7, #4]
 8002884:	609a      	str	r2, [r3, #8]
}
 8002886:	46c0      	nop			; (mov r8, r8)
 8002888:	46bd      	mov	sp, r7
 800288a:	b002      	add	sp, #8
 800288c:	bd80      	pop	{r7, pc}
 800288e:	46c0      	nop			; (mov r8, r8)
 8002890:	fffffcff 	.word	0xfffffcff

08002894 <LL_USART_SetBaudRate>:
{
 8002894:	b580      	push	{r7, lr}
 8002896:	b086      	sub	sp, #24
 8002898:	af00      	add	r7, sp, #0
 800289a:	60f8      	str	r0, [r7, #12]
 800289c:	60b9      	str	r1, [r7, #8]
 800289e:	607a      	str	r2, [r7, #4]
 80028a0:	603b      	str	r3, [r7, #0]
  if (PrescalerValue > LL_USART_PRESCALER_DIV256)
 80028a2:	687b      	ldr	r3, [r7, #4]
 80028a4:	2b0b      	cmp	r3, #11
 80028a6:	d846      	bhi.n	8002936 <LL_USART_SetBaudRate+0xa2>
  else if (BaudRate == 0U)
 80028a8:	6a3b      	ldr	r3, [r7, #32]
 80028aa:	2b00      	cmp	r3, #0
 80028ac:	d043      	beq.n	8002936 <LL_USART_SetBaudRate+0xa2>
  else if (OverSampling == LL_USART_OVERSAMPLING_8)
 80028ae:	683a      	ldr	r2, [r7, #0]
 80028b0:	2380      	movs	r3, #128	; 0x80
 80028b2:	021b      	lsls	r3, r3, #8
 80028b4:	429a      	cmp	r2, r3
 80028b6:	d126      	bne.n	8002906 <LL_USART_SetBaudRate+0x72>
    usartdiv = (uint16_t)(__LL_USART_DIV_SAMPLING8(PeriphClk, (uint8_t)PrescalerValue, BaudRate));
 80028b8:	687b      	ldr	r3, [r7, #4]
 80028ba:	b2db      	uxtb	r3, r3
 80028bc:	001a      	movs	r2, r3
 80028be:	4b20      	ldr	r3, [pc, #128]	; (8002940 <LL_USART_SetBaudRate+0xac>)
 80028c0:	0092      	lsls	r2, r2, #2
 80028c2:	58d3      	ldr	r3, [r2, r3]
 80028c4:	0019      	movs	r1, r3
 80028c6:	68b8      	ldr	r0, [r7, #8]
 80028c8:	f7fd fc1a 	bl	8000100 <__udivsi3>
 80028cc:	0003      	movs	r3, r0
 80028ce:	005a      	lsls	r2, r3, #1
 80028d0:	6a3b      	ldr	r3, [r7, #32]
 80028d2:	085b      	lsrs	r3, r3, #1
 80028d4:	18d3      	adds	r3, r2, r3
 80028d6:	6a39      	ldr	r1, [r7, #32]
 80028d8:	0018      	movs	r0, r3
 80028da:	f7fd fc11 	bl	8000100 <__udivsi3>
 80028de:	0003      	movs	r3, r0
 80028e0:	b29b      	uxth	r3, r3
 80028e2:	617b      	str	r3, [r7, #20]
    brrtemp = usartdiv & 0xFFF0U;
 80028e4:	697b      	ldr	r3, [r7, #20]
 80028e6:	4a17      	ldr	r2, [pc, #92]	; (8002944 <LL_USART_SetBaudRate+0xb0>)
 80028e8:	4013      	ands	r3, r2
 80028ea:	613b      	str	r3, [r7, #16]
    brrtemp |= (uint16_t)((usartdiv & (uint16_t)0x000FU) >> 1U);
 80028ec:	697b      	ldr	r3, [r7, #20]
 80028ee:	085b      	lsrs	r3, r3, #1
 80028f0:	b29b      	uxth	r3, r3
 80028f2:	001a      	movs	r2, r3
 80028f4:	2307      	movs	r3, #7
 80028f6:	4013      	ands	r3, r2
 80028f8:	693a      	ldr	r2, [r7, #16]
 80028fa:	4313      	orrs	r3, r2
 80028fc:	613b      	str	r3, [r7, #16]
    USARTx->BRR = brrtemp;
 80028fe:	68fb      	ldr	r3, [r7, #12]
 8002900:	693a      	ldr	r2, [r7, #16]
 8002902:	60da      	str	r2, [r3, #12]
}
 8002904:	e017      	b.n	8002936 <LL_USART_SetBaudRate+0xa2>
    USARTx->BRR = (uint16_t)(__LL_USART_DIV_SAMPLING16(PeriphClk, (uint8_t)PrescalerValue, BaudRate));
 8002906:	687b      	ldr	r3, [r7, #4]
 8002908:	b2db      	uxtb	r3, r3
 800290a:	001a      	movs	r2, r3
 800290c:	4b0c      	ldr	r3, [pc, #48]	; (8002940 <LL_USART_SetBaudRate+0xac>)
 800290e:	0092      	lsls	r2, r2, #2
 8002910:	58d3      	ldr	r3, [r2, r3]
 8002912:	0019      	movs	r1, r3
 8002914:	68b8      	ldr	r0, [r7, #8]
 8002916:	f7fd fbf3 	bl	8000100 <__udivsi3>
 800291a:	0003      	movs	r3, r0
 800291c:	001a      	movs	r2, r3
 800291e:	6a3b      	ldr	r3, [r7, #32]
 8002920:	085b      	lsrs	r3, r3, #1
 8002922:	18d3      	adds	r3, r2, r3
 8002924:	6a39      	ldr	r1, [r7, #32]
 8002926:	0018      	movs	r0, r3
 8002928:	f7fd fbea 	bl	8000100 <__udivsi3>
 800292c:	0003      	movs	r3, r0
 800292e:	b29b      	uxth	r3, r3
 8002930:	001a      	movs	r2, r3
 8002932:	68fb      	ldr	r3, [r7, #12]
 8002934:	60da      	str	r2, [r3, #12]
}
 8002936:	46c0      	nop			; (mov r8, r8)
 8002938:	46bd      	mov	sp, r7
 800293a:	b006      	add	sp, #24
 800293c:	bd80      	pop	{r7, pc}
 800293e:	46c0      	nop			; (mov r8, r8)
 8002940:	08002b48 	.word	0x08002b48
 8002944:	0000fff0 	.word	0x0000fff0

08002948 <LL_USART_Init>:
  * @retval An ErrorStatus enumeration value:
  *          - SUCCESS: USART registers are initialized according to USART_InitStruct content
  *          - ERROR: Problem occurred during USART Registers initialization
  */
ErrorStatus LL_USART_Init(USART_TypeDef *USARTx, const LL_USART_InitTypeDef *USART_InitStruct)
{
 8002948:	b590      	push	{r4, r7, lr}
 800294a:	b08b      	sub	sp, #44	; 0x2c
 800294c:	af02      	add	r7, sp, #8
 800294e:	6078      	str	r0, [r7, #4]
 8002950:	6039      	str	r1, [r7, #0]
  ErrorStatus status = ERROR;
 8002952:	231f      	movs	r3, #31
 8002954:	18fb      	adds	r3, r7, r3
 8002956:	2201      	movs	r2, #1
 8002958:	701a      	strb	r2, [r3, #0]
  uint32_t periphclk = LL_RCC_PERIPH_FREQUENCY_NO;
 800295a:	2300      	movs	r3, #0
 800295c:	61bb      	str	r3, [r7, #24]
  assert_param(IS_LL_USART_HWCONTROL(USART_InitStruct->HardwareFlowControl));
  assert_param(IS_LL_USART_OVERSAMPLING(USART_InitStruct->OverSampling));

  /* USART needs to be in disabled state, in order to be able to configure some bits in
     CRx registers */
  if (LL_USART_IsEnabled(USARTx) == 0U)
 800295e:	687b      	ldr	r3, [r7, #4]
 8002960:	0018      	movs	r0, r3
 8002962:	f7ff ff4b 	bl	80027fc <LL_USART_IsEnabled>
 8002966:	1e03      	subs	r3, r0, #0
 8002968:	d153      	bne.n	8002a12 <LL_USART_Init+0xca>
     * - DataWidth:          USART_CR1_M bits according to USART_InitStruct->DataWidth value
     * - Parity:             USART_CR1_PCE, USART_CR1_PS bits according to USART_InitStruct->Parity value
     * - TransferDirection:  USART_CR1_TE, USART_CR1_RE bits according to USART_InitStruct->TransferDirection value
     * - Oversampling:       USART_CR1_OVER8 bit according to USART_InitStruct->OverSampling value.
     */
    MODIFY_REG(USARTx->CR1,
 800296a:	687b      	ldr	r3, [r7, #4]
 800296c:	681b      	ldr	r3, [r3, #0]
 800296e:	4a2c      	ldr	r2, [pc, #176]	; (8002a20 <LL_USART_Init+0xd8>)
 8002970:	401a      	ands	r2, r3
 8002972:	683b      	ldr	r3, [r7, #0]
 8002974:	6899      	ldr	r1, [r3, #8]
 8002976:	683b      	ldr	r3, [r7, #0]
 8002978:	691b      	ldr	r3, [r3, #16]
 800297a:	4319      	orrs	r1, r3
 800297c:	683b      	ldr	r3, [r7, #0]
 800297e:	695b      	ldr	r3, [r3, #20]
 8002980:	4319      	orrs	r1, r3
 8002982:	683b      	ldr	r3, [r7, #0]
 8002984:	69db      	ldr	r3, [r3, #28]
 8002986:	430b      	orrs	r3, r1
 8002988:	431a      	orrs	r2, r3
 800298a:	687b      	ldr	r3, [r7, #4]
 800298c:	601a      	str	r2, [r3, #0]
    /*---------------------------- USART CR2 Configuration ---------------------
     * Configure USARTx CR2 (Stop bits) with parameters:
     * - Stop Bits:          USART_CR2_STOP bits according to USART_InitStruct->StopBits value.
     * - CLKEN, CPOL, CPHA and LBCL bits are to be configured using LL_USART_ClockInit().
     */
    LL_USART_SetStopBitsLength(USARTx, USART_InitStruct->StopBits);
 800298e:	683b      	ldr	r3, [r7, #0]
 8002990:	68da      	ldr	r2, [r3, #12]
 8002992:	687b      	ldr	r3, [r7, #4]
 8002994:	0011      	movs	r1, r2
 8002996:	0018      	movs	r0, r3
 8002998:	f7ff ff54 	bl	8002844 <LL_USART_SetStopBitsLength>
    /*---------------------------- USART CR3 Configuration ---------------------
     * Configure USARTx CR3 (Hardware Flow Control) with parameters:
     * - HardwareFlowControl: USART_CR3_RTSE, USART_CR3_CTSE bits according to
     *   USART_InitStruct->HardwareFlowControl value.
     */
    LL_USART_SetHWFlowCtrl(USARTx, USART_InitStruct->HardwareFlowControl);
 800299c:	683b      	ldr	r3, [r7, #0]
 800299e:	699a      	ldr	r2, [r3, #24]
 80029a0:	687b      	ldr	r3, [r7, #4]
 80029a2:	0011      	movs	r1, r2
 80029a4:	0018      	movs	r0, r3
 80029a6:	f7ff ff61 	bl	800286c <LL_USART_SetHWFlowCtrl>

    /*---------------------------- USART BRR Configuration ---------------------
     * Retrieve Clock frequency used for USART Peripheral
     */
    if (USARTx == USART1)
 80029aa:	687b      	ldr	r3, [r7, #4]
 80029ac:	4a1d      	ldr	r2, [pc, #116]	; (8002a24 <LL_USART_Init+0xdc>)
 80029ae:	4293      	cmp	r3, r2
 80029b0:	d105      	bne.n	80029be <LL_USART_Init+0x76>
    {
      periphclk = LL_RCC_GetUSARTClockFreq(LL_RCC_USART1_CLKSOURCE);
 80029b2:	2003      	movs	r0, #3
 80029b4:	f7ff fd9e 	bl	80024f4 <LL_RCC_GetUSARTClockFreq>
 80029b8:	0003      	movs	r3, r0
 80029ba:	61bb      	str	r3, [r7, #24]
 80029bc:	e00b      	b.n	80029d6 <LL_USART_Init+0x8e>
    }
    else if (USARTx == USART2)
 80029be:	687b      	ldr	r3, [r7, #4]
 80029c0:	4a19      	ldr	r2, [pc, #100]	; (8002a28 <LL_USART_Init+0xe0>)
 80029c2:	4293      	cmp	r3, r2
 80029c4:	d107      	bne.n	80029d6 <LL_USART_Init+0x8e>
    {
#if defined(RCC_CCIPR_USART2SEL)
      periphclk = LL_RCC_GetUSARTClockFreq(LL_RCC_USART2_CLKSOURCE);
#else
      /* USART2 clock is PCLK */
      LL_RCC_GetSystemClocksFreq(&RCC_Clocks);
 80029c6:	240c      	movs	r4, #12
 80029c8:	193b      	adds	r3, r7, r4
 80029ca:	0018      	movs	r0, r3
 80029cc:	f7ff fd74 	bl	80024b8 <LL_RCC_GetSystemClocksFreq>
      periphclk = RCC_Clocks.PCLK1_Frequency;
 80029d0:	193b      	adds	r3, r7, r4
 80029d2:	689b      	ldr	r3, [r3, #8]
 80029d4:	61bb      	str	r3, [r7, #24]
    /* Configure the USART Baud Rate :
       - prescaler value is required
       - valid baud rate value (different from 0) is required
       - Peripheral clock as returned by RCC service, should be valid (different from 0).
    */
    if ((periphclk != LL_RCC_PERIPH_FREQUENCY_NO)
 80029d6:	69bb      	ldr	r3, [r7, #24]
 80029d8:	2b00      	cmp	r3, #0
 80029da:	d013      	beq.n	8002a04 <LL_USART_Init+0xbc>
        && (USART_InitStruct->BaudRate != 0U))
 80029dc:	683b      	ldr	r3, [r7, #0]
 80029de:	685b      	ldr	r3, [r3, #4]
 80029e0:	2b00      	cmp	r3, #0
 80029e2:	d00f      	beq.n	8002a04 <LL_USART_Init+0xbc>
    {
      status = SUCCESS;
 80029e4:	231f      	movs	r3, #31
 80029e6:	18fb      	adds	r3, r7, r3
 80029e8:	2200      	movs	r2, #0
 80029ea:	701a      	strb	r2, [r3, #0]
      LL_USART_SetBaudRate(USARTx,
                           periphclk,
                           USART_InitStruct->PrescalerValue,
 80029ec:	683b      	ldr	r3, [r7, #0]
 80029ee:	681a      	ldr	r2, [r3, #0]
                           USART_InitStruct->OverSampling,
 80029f0:	683b      	ldr	r3, [r7, #0]
 80029f2:	69dc      	ldr	r4, [r3, #28]
                           USART_InitStruct->BaudRate);
 80029f4:	683b      	ldr	r3, [r7, #0]
 80029f6:	685b      	ldr	r3, [r3, #4]
      LL_USART_SetBaudRate(USARTx,
 80029f8:	69b9      	ldr	r1, [r7, #24]
 80029fa:	6878      	ldr	r0, [r7, #4]
 80029fc:	9300      	str	r3, [sp, #0]
 80029fe:	0023      	movs	r3, r4
 8002a00:	f7ff ff48 	bl	8002894 <LL_USART_SetBaudRate>

    /*---------------------------- USART PRESC Configuration -----------------------
     * Configure USARTx PRESC (Prescaler) with parameters:
     * - PrescalerValue: USART_PRESC_PRESCALER bits according to USART_InitStruct->PrescalerValue value.
     */
    LL_USART_SetPrescaler(USARTx, USART_InitStruct->PrescalerValue);
 8002a04:	683b      	ldr	r3, [r7, #0]
 8002a06:	681a      	ldr	r2, [r3, #0]
 8002a08:	687b      	ldr	r3, [r7, #4]
 8002a0a:	0011      	movs	r1, r2
 8002a0c:	0018      	movs	r0, r3
 8002a0e:	f7ff ff06 	bl	800281e <LL_USART_SetPrescaler>
  }
  /* Endif (=> USART not in Disabled state => return ERROR) */

  return (status);
 8002a12:	231f      	movs	r3, #31
 8002a14:	18fb      	adds	r3, r7, r3
 8002a16:	781b      	ldrb	r3, [r3, #0]
}
 8002a18:	0018      	movs	r0, r3
 8002a1a:	46bd      	mov	sp, r7
 8002a1c:	b009      	add	sp, #36	; 0x24
 8002a1e:	bd90      	pop	{r4, r7, pc}
 8002a20:	efff69f3 	.word	0xefff69f3
 8002a24:	40013800 	.word	0x40013800
 8002a28:	40004400 	.word	0x40004400

08002a2c <LL_mDelay>:
  *         will configure Systick to 1ms
  * @param  Delay specifies the delay time length, in milliseconds.
  * @retval None
  */
void LL_mDelay(uint32_t Delay)
{
 8002a2c:	b580      	push	{r7, lr}
 8002a2e:	b084      	sub	sp, #16
 8002a30:	af00      	add	r7, sp, #0
 8002a32:	6078      	str	r0, [r7, #4]
  __IO uint32_t  tmp = SysTick->CTRL;  /* Clear the COUNTFLAG first */
 8002a34:	4b0e      	ldr	r3, [pc, #56]	; (8002a70 <LL_mDelay+0x44>)
 8002a36:	681b      	ldr	r3, [r3, #0]
 8002a38:	60bb      	str	r3, [r7, #8]
   uint32_t tmpDelay; /* MISRAC2012-Rule-17.8 */
  /* Add this code to indicate that local variable is not used */
  ((void)tmp);
 8002a3a:	68bb      	ldr	r3, [r7, #8]
  tmpDelay  = Delay;
 8002a3c:	687b      	ldr	r3, [r7, #4]
 8002a3e:	60fb      	str	r3, [r7, #12]
  /* Add a period to guaranty minimum wait */
  if (tmpDelay  < LL_MAX_DELAY)
 8002a40:	68fb      	ldr	r3, [r7, #12]
 8002a42:	3301      	adds	r3, #1
 8002a44:	d00c      	beq.n	8002a60 <LL_mDelay+0x34>
  {
    tmpDelay ++;
 8002a46:	68fb      	ldr	r3, [r7, #12]
 8002a48:	3301      	adds	r3, #1
 8002a4a:	60fb      	str	r3, [r7, #12]
 8002a4c:	e008      	b.n	8002a60 <LL_mDelay+0x34>
  }

  while (tmpDelay  != 0U)
  {
    if ((SysTick->CTRL & SysTick_CTRL_COUNTFLAG_Msk) != 0U)
 8002a4e:	4b08      	ldr	r3, [pc, #32]	; (8002a70 <LL_mDelay+0x44>)
 8002a50:	681a      	ldr	r2, [r3, #0]
 8002a52:	2380      	movs	r3, #128	; 0x80
 8002a54:	025b      	lsls	r3, r3, #9
 8002a56:	4013      	ands	r3, r2
 8002a58:	d002      	beq.n	8002a60 <LL_mDelay+0x34>
    {
      tmpDelay --;
 8002a5a:	68fb      	ldr	r3, [r7, #12]
 8002a5c:	3b01      	subs	r3, #1
 8002a5e:	60fb      	str	r3, [r7, #12]
  while (tmpDelay  != 0U)
 8002a60:	68fb      	ldr	r3, [r7, #12]
 8002a62:	2b00      	cmp	r3, #0
 8002a64:	d1f3      	bne.n	8002a4e <LL_mDelay+0x22>
    }
  }
}
 8002a66:	46c0      	nop			; (mov r8, r8)
 8002a68:	46c0      	nop			; (mov r8, r8)
 8002a6a:	46bd      	mov	sp, r7
 8002a6c:	b004      	add	sp, #16
 8002a6e:	bd80      	pop	{r7, pc}
 8002a70:	e000e010 	.word	0xe000e010

08002a74 <memset>:
 8002a74:	0003      	movs	r3, r0
 8002a76:	1882      	adds	r2, r0, r2
 8002a78:	4293      	cmp	r3, r2
 8002a7a:	d100      	bne.n	8002a7e <memset+0xa>
 8002a7c:	4770      	bx	lr
 8002a7e:	7019      	strb	r1, [r3, #0]
 8002a80:	3301      	adds	r3, #1
 8002a82:	e7f9      	b.n	8002a78 <memset+0x4>

08002a84 <__libc_init_array>:
 8002a84:	b570      	push	{r4, r5, r6, lr}
 8002a86:	2600      	movs	r6, #0
 8002a88:	4c0c      	ldr	r4, [pc, #48]	; (8002abc <__libc_init_array+0x38>)
 8002a8a:	4d0d      	ldr	r5, [pc, #52]	; (8002ac0 <__libc_init_array+0x3c>)
 8002a8c:	1b64      	subs	r4, r4, r5
 8002a8e:	10a4      	asrs	r4, r4, #2
 8002a90:	42a6      	cmp	r6, r4
 8002a92:	d109      	bne.n	8002aa8 <__libc_init_array+0x24>
 8002a94:	2600      	movs	r6, #0
 8002a96:	f000 f819 	bl	8002acc <_init>
 8002a9a:	4c0a      	ldr	r4, [pc, #40]	; (8002ac4 <__libc_init_array+0x40>)
 8002a9c:	4d0a      	ldr	r5, [pc, #40]	; (8002ac8 <__libc_init_array+0x44>)
 8002a9e:	1b64      	subs	r4, r4, r5
 8002aa0:	10a4      	asrs	r4, r4, #2
 8002aa2:	42a6      	cmp	r6, r4
 8002aa4:	d105      	bne.n	8002ab2 <__libc_init_array+0x2e>
 8002aa6:	bd70      	pop	{r4, r5, r6, pc}
 8002aa8:	00b3      	lsls	r3, r6, #2
 8002aaa:	58eb      	ldr	r3, [r5, r3]
 8002aac:	4798      	blx	r3
 8002aae:	3601      	adds	r6, #1
 8002ab0:	e7ee      	b.n	8002a90 <__libc_init_array+0xc>
 8002ab2:	00b3      	lsls	r3, r6, #2
 8002ab4:	58eb      	ldr	r3, [r5, r3]
 8002ab6:	4798      	blx	r3
 8002ab8:	3601      	adds	r6, #1
 8002aba:	e7f2      	b.n	8002aa2 <__libc_init_array+0x1e>
 8002abc:	08002b78 	.word	0x08002b78
 8002ac0:	08002b78 	.word	0x08002b78
 8002ac4:	08002b7c 	.word	0x08002b7c
 8002ac8:	08002b78 	.word	0x08002b78

08002acc <_init>:
 8002acc:	b5f8      	push	{r3, r4, r5, r6, r7, lr}
 8002ace:	46c0      	nop			; (mov r8, r8)
 8002ad0:	bcf8      	pop	{r3, r4, r5, r6, r7}
 8002ad2:	bc08      	pop	{r3}
 8002ad4:	469e      	mov	lr, r3
 8002ad6:	4770      	bx	lr

08002ad8 <_fini>:
 8002ad8:	b5f8      	push	{r3, r4, r5, r6, r7, lr}
 8002ada:	46c0      	nop			; (mov r8, r8)
 8002adc:	bcf8      	pop	{r3, r4, r5, r6, r7}
 8002ade:	bc08      	pop	{r3}
 8002ae0:	469e      	mov	lr, r3
 8002ae2:	4770      	bx	lr
